GAS LISTING /tmp/ccEPZGsr.s 			page 1


   1               		.file	"main.c"
   2               	__SREG__ = 0x3f
   3               	__SP_H__ = 0x3e
   4               	__SP_L__ = 0x3d
   5               	__CCP__  = 0x34
   6               	__tmp_reg__ = 0
   7               	__zero_reg__ = 1
   8               		.global __do_copy_data
   9               		.global __do_clear_bss
  10               		.section	.debug_abbrev,"",@progbits
  11               	.Ldebug_abbrev0:
  12               		.section	.debug_info,"",@progbits
  13               	.Ldebug_info0:
  14               		.section	.debug_line,"",@progbits
  15               	.Ldebug_line0:
  16               		.text
  17               	.Ltext0:
  18               	.global	read_adc
  19               		.type	read_adc, @function
  20               	read_adc:
  21               	.LFB3:
  22               	.LM1:
  23               	.LVL0:
  24               	/* prologue: function */
  25               	/* frame size = 0 */
  26               	.LM2:
  27 0000 87B9      		out 39-32,r24
  28 0002 20E0      		ldi r18,lo8(0)
  29 0004 30E0      		ldi r19,hi8(0)
  30               	.LVL1:
  31 0006 40E0      		ldi r20,lo8(0)
  32               	.LVL2:
  33               	.L3:
  34               	.LM3:
  35 0008 369A      		sbi 38-32,6
  36               	.L2:
  37               	.LM4:
  38 000a 3699      		sbic 38-32,6
  39 000c 00C0      		rjmp .L2
  40               	.LM5:
  41 000e 84B1      		in r24,36-32
  42 0010 95B1      		in r25,(36)+1-32
  43               	.LVL3:
  44 0012 280F      		add r18,r24
  45 0014 391F      		adc r19,r25
  46               	.LM6:
  47 0016 4F5F      		subi r20,lo8(-(1))
  48 0018 4430      		cpi r20,lo8(4)
  49 001a 01F4      		brne .L3
  50 001c 3695      		lsr r19
  51 001e 2795      		ror r18
  52 0020 3695      		lsr r19
  53 0022 2795      		ror r18
  54               	.LVL4:
  55               	.LM7:
  56 0024 C901      		movw r24,r18
  57               	/* epilogue start */
GAS LISTING /tmp/ccEPZGsr.s 			page 2


  58 0026 0895      		ret
  59               	.LFE3:
  60               		.size	read_adc, .-read_adc
  61               	.global	put_word
  62               		.type	put_word, @function
  63               	put_word:
  64               	.LFB4:
  65               	.LM8:
  66               	.LVL5:
  67 0028 1F93      		push r17
  68               	/* prologue: function */
  69               	/* frame size = 0 */
  70 002a 182F      		mov r17,r24
  71               	.LM9:
  72 002c 892F      		mov r24,r25
  73               	.LVL6:
  74 002e 00D0      		rcall softuart_putchar
  75               	.LVL7:
  76               	.LM10:
  77 0030 812F      		mov r24,r17
  78 0032 00D0      		rcall softuart_putchar
  79               	/* epilogue start */
  80               	.LM11:
  81 0034 1F91      		pop r17
  82               	.LVL8:
  83 0036 0895      		ret
  84               	.LFE4:
  85               		.size	put_word, .-put_word
  86               	.global	main
  87               		.type	main, @function
  88               	main:
  89               	.LFB2:
  90               	.LM12:
  91 0038 FF92      		push r15
  92 003a 0F93      		push r16
  93 003c 1F93      		push r17
  94               	/* prologue: function */
  95               	/* frame size = 0 */
  96               	.LM13:
  97 003e 00D0      		rcall softuart_init
  98               	.LM14:
  99               	/* #APP */
 100               	 ;  24 "main.c" 1
 101 0040 7894      		sei
 102               	 ;  0 "" 2
 103               	.LM15:
 104               	/* #NOAPP */
 105 0042 83E8      		ldi r24,lo8(-125)
 106 0044 86B9      		out 38-32,r24
 107               	.LBB8:
 108               	.LBB9:
 109               	.LM16:
 110 0046 33E0      		ldi r19,lo8(3)
 111 0048 F32E      		mov r15,r19
 112               	.LBE9:
 113               	.LBE8:
 114               	.LBB11:
GAS LISTING /tmp/ccEPZGsr.s 			page 3


 115               	.LBB12:
 116 004a 02E0      		ldi r16,lo8(2)
 117               	.LBE12:
 118               	.LBE11:
 119               	.LBB14:
 120               	.LBB15:
 121 004c 11E0      		ldi r17,lo8(1)
 122               	.LVL9:
 123               	.L28:
 124               	.LBE15:
 125               	.LBE14:
 126               	.LM17:
 127 004e 00D0      		rcall softuart_kbhit
 128               	.LVL10:
 129 0050 8823      		tst r24
 130 0052 01F0      		breq .L28
 131               	.LM18:
 132 0054 00D0      		rcall softuart_getchar
 133               	.LM19:
 134 0056 8133      		cpi r24,lo8(49)
 135               	.LVL11:
 136 0058 01F4      		brne .L11
 137               	.LBB17:
 138               	.LBB16:
 139               	.LM20:
 140 005a 17B9      		out 39-32,r17
 141 005c 20E0      		ldi r18,lo8(0)
 142 005e 30E0      		ldi r19,hi8(0)
 143               	.LVL12:
 144 0060 40E0      		ldi r20,lo8(0)
 145               	.LVL13:
 146               	.L13:
 147               	.LM21:
 148 0062 369A      		sbi 38-32,6
 149               	.L12:
 150               	.LM22:
 151 0064 3699      		sbic 38-32,6
 152 0066 00C0      		rjmp .L12
 153               	.LM23:
 154 0068 84B1      		in r24,36-32
 155 006a 95B1      		in r25,(36)+1-32
 156               	.LVL14:
 157 006c 280F      		add r18,r24
 158 006e 391F      		adc r19,r25
 159               	.LM24:
 160 0070 4F5F      		subi r20,lo8(-(1))
 161 0072 4430      		cpi r20,lo8(4)
 162 0074 01F4      		brne .L13
 163 0076 00C0      		rjmp .L29
 164               	.LVL15:
 165               	.L11:
 166               	.LBE16:
 167               	.LBE17:
 168               	.LM25:
 169 0078 8233      		cpi r24,lo8(50)
 170 007a 01F4      		brne .L14
 171               	.LBB18:
GAS LISTING /tmp/ccEPZGsr.s 			page 4


 172               	.LBB13:
 173               	.LM26:
 174 007c 07B9      		out 39-32,r16
 175 007e 20E0      		ldi r18,lo8(0)
 176 0080 30E0      		ldi r19,hi8(0)
 177               	.LVL16:
 178 0082 40E0      		ldi r20,lo8(0)
 179               	.LVL17:
 180               	.L16:
 181               	.LM27:
 182 0084 369A      		sbi 38-32,6
 183               	.L15:
 184               	.LM28:
 185 0086 3699      		sbic 38-32,6
 186 0088 00C0      		rjmp .L15
 187               	.LM29:
 188 008a 84B1      		in r24,36-32
 189 008c 95B1      		in r25,(36)+1-32
 190               	.LVL18:
 191 008e 280F      		add r18,r24
 192 0090 391F      		adc r19,r25
 193               	.LM30:
 194 0092 4F5F      		subi r20,lo8(-(1))
 195 0094 4430      		cpi r20,lo8(4)
 196 0096 01F4      		brne .L16
 197 0098 00C0      		rjmp .L29
 198               	.LVL19:
 199               	.L14:
 200               	.LBE13:
 201               	.LBE18:
 202               	.LM31:
 203 009a 8333      		cpi r24,lo8(51)
 204 009c 01F4      		brne .L28
 205               	.LBB19:
 206               	.LBB10:
 207               	.LM32:
 208 009e F7B8      		out 39-32,r15
 209 00a0 20E0      		ldi r18,lo8(0)
 210 00a2 30E0      		ldi r19,hi8(0)
 211               	.LVL20:
 212 00a4 40E0      		ldi r20,lo8(0)
 213               	.LVL21:
 214               	.L18:
 215               	.LM33:
 216 00a6 369A      		sbi 38-32,6
 217               	.L17:
 218               	.LM34:
 219 00a8 3699      		sbic 38-32,6
 220 00aa 00C0      		rjmp .L17
 221               	.LM35:
 222 00ac 84B1      		in r24,36-32
 223 00ae 95B1      		in r25,(36)+1-32
 224               	.LVL22:
 225 00b0 280F      		add r18,r24
 226 00b2 391F      		adc r19,r25
 227               	.LM36:
 228 00b4 4F5F      		subi r20,lo8(-(1))
GAS LISTING /tmp/ccEPZGsr.s 			page 5


 229 00b6 4430      		cpi r20,lo8(4)
 230 00b8 01F4      		brne .L18
 231               	.LVL23:
 232               	.L29:
 233               	.LBE10:
 234               	.LBE19:
 235               	.LM37:
 236 00ba C901      		movw r24,r18
 237 00bc 9695      		lsr r25
 238 00be 8795      		ror r24
 239 00c0 9695      		lsr r25
 240 00c2 8795      		ror r24
 241               	.LVL24:
 242 00c4 00D0      		rcall put_word
 243               	.LVL25:
 244 00c6 00C0      		rjmp .L28
 245               	.LFE2:
 246               		.size	main, .-main
 247               		.section	.debug_frame,"",@progbits
 248               	.Lframe0:
 249 0000 0C00 0000 		.long	.LECIE0-.LSCIE0
 250               	.LSCIE0:
 251 0004 FFFF FFFF 		.long	0xffffffff
 252 0008 01        		.byte	0x1
 253 0009 00        		.string	""
 254 000a 01        		.uleb128 0x1
 255 000b 7F        		.sleb128 -1
 256 000c 24        		.byte	0x24
 257 000d 0C        		.byte	0xc
 258 000e 20        		.uleb128 0x20
 259 000f 00        		.uleb128 0x0
 260               		.p2align	2
 261               	.LECIE0:
 262               	.LSFDE0:
 263 0010 0C00 0000 		.long	.LEFDE0-.LASFDE0
 264               	.LASFDE0:
 265 0014 0000 0000 		.long	.Lframe0
 266 0018 0000 0000 		.long	.LFB3
 267 001c 2800 0000 		.long	.LFE3-.LFB3
 268               		.p2align	2
 269               	.LEFDE0:
 270               	.LSFDE2:
 271 0020 0C00 0000 		.long	.LEFDE2-.LASFDE2
 272               	.LASFDE2:
 273 0024 0000 0000 		.long	.Lframe0
 274 0028 0000 0000 		.long	.LFB4
 275 002c 1000 0000 		.long	.LFE4-.LFB4
 276               		.p2align	2
 277               	.LEFDE2:
 278               	.LSFDE4:
 279 0030 0C00 0000 		.long	.LEFDE4-.LASFDE4
 280               	.LASFDE4:
 281 0034 0000 0000 		.long	.Lframe0
 282 0038 0000 0000 		.long	.LFB2
 283 003c 9000 0000 		.long	.LFE2-.LFB2
 284               		.p2align	2
 285               	.LEFDE4:
GAS LISTING /tmp/ccEPZGsr.s 			page 6


 286               		.text
 287               	.Letext0:
 288               		.section	.debug_loc,"",@progbits
 289               	.Ldebug_loc0:
 290               	.LLST1:
 291 0000 0000 0000 		.long	.LVL0-.Ltext0
 292 0004 1200 0000 		.long	.LVL3-.Ltext0
 293 0008 0100      		.word	0x1
 294 000a 68        		.byte	0x68
 295 000b 0000 0000 		.long	0x0
 296 000f 0000 0000 		.long	0x0
 297               	.LLST2:
 298 0013 0600 0000 		.long	.LVL1-.Ltext0
 299 0017 2400 0000 		.long	.LVL4-.Ltext0
 300 001b 0600      		.word	0x6
 301 001d 62        		.byte	0x62
 302 001e 93        		.byte	0x93
 303 001f 01        		.uleb128 0x1
 304 0020 63        		.byte	0x63
 305 0021 93        		.byte	0x93
 306 0022 01        		.uleb128 0x1
 307 0023 0000 0000 		.long	0x0
 308 0027 0000 0000 		.long	0x0
 309               	.LLST4:
 310 002b 2800 0000 		.long	.LVL5-.Ltext0
 311 002f 2E00 0000 		.long	.LVL6-.Ltext0
 312 0033 0600      		.word	0x6
 313 0035 68        		.byte	0x68
 314 0036 93        		.byte	0x93
 315 0037 01        		.uleb128 0x1
 316 0038 69        		.byte	0x69
 317 0039 93        		.byte	0x93
 318 003a 01        		.uleb128 0x1
 319 003b 2E00 0000 		.long	.LVL6-.Ltext0
 320 003f 3000 0000 		.long	.LVL7-.Ltext0
 321 0043 0600      		.word	0x6
 322 0045 61        		.byte	0x61
 323 0046 93        		.byte	0x93
 324 0047 01        		.uleb128 0x1
 325 0048 69        		.byte	0x69
 326 0049 93        		.byte	0x93
 327 004a 01        		.uleb128 0x1
 328 004b 0000 0000 		.long	0x0
 329 004f 0000 0000 		.long	0x0
 330               	.LLST6:
 331 0053 4E00 0000 		.long	.LVL9-.Ltext0
 332 0057 5000 0000 		.long	.LVL10-.Ltext0
 333 005b 0100      		.word	0x1
 334 005d 68        		.byte	0x68
 335 005e 5800 0000 		.long	.LVL11-.Ltext0
 336 0062 6C00 0000 		.long	.LVL14-.Ltext0
 337 0066 0100      		.word	0x1
 338 0068 68        		.byte	0x68
 339 0069 7800 0000 		.long	.LVL15-.Ltext0
 340 006d 8E00 0000 		.long	.LVL18-.Ltext0
 341 0071 0100      		.word	0x1
 342 0073 68        		.byte	0x68
GAS LISTING /tmp/ccEPZGsr.s 			page 7


 343 0074 9A00 0000 		.long	.LVL19-.Ltext0
 344 0078 B000 0000 		.long	.LVL22-.Ltext0
 345 007c 0100      		.word	0x1
 346 007e 68        		.byte	0x68
 347 007f 0000 0000 		.long	0x0
 348 0083 0000 0000 		.long	0x0
 349               	.LLST7:
 350 0087 A400 0000 		.long	.LVL20-.Ltext0
 351 008b C400 0000 		.long	.LVL24-.Ltext0
 352 008f 0600      		.word	0x6
 353 0091 62        		.byte	0x62
 354 0092 93        		.byte	0x93
 355 0093 01        		.uleb128 0x1
 356 0094 63        		.byte	0x63
 357 0095 93        		.byte	0x93
 358 0096 01        		.uleb128 0x1
 359 0097 0000 0000 		.long	0x0
 360 009b 0000 0000 		.long	0x0
 361               	.LLST8:
 362 009f A600 0000 		.long	.LVL21-.Ltext0
 363 00a3 C600 0000 		.long	.LVL25-.Ltext0
 364 00a7 0100      		.word	0x1
 365 00a9 64        		.byte	0x64
 366 00aa 0000 0000 		.long	0x0
 367 00ae 0000 0000 		.long	0x0
 368               	.LLST9:
 369 00b2 8200 0000 		.long	.LVL16-.Ltext0
 370 00b6 9A00 0000 		.long	.LVL19-.Ltext0
 371 00ba 0600      		.word	0x6
 372 00bc 62        		.byte	0x62
 373 00bd 93        		.byte	0x93
 374 00be 01        		.uleb128 0x1
 375 00bf 63        		.byte	0x63
 376 00c0 93        		.byte	0x93
 377 00c1 01        		.uleb128 0x1
 378 00c2 BA00 0000 		.long	.LVL23-.Ltext0
 379 00c6 C400 0000 		.long	.LVL24-.Ltext0
 380 00ca 0600      		.word	0x6
 381 00cc 62        		.byte	0x62
 382 00cd 93        		.byte	0x93
 383 00ce 01        		.uleb128 0x1
 384 00cf 63        		.byte	0x63
 385 00d0 93        		.byte	0x93
 386 00d1 01        		.uleb128 0x1
 387 00d2 0000 0000 		.long	0x0
 388 00d6 0000 0000 		.long	0x0
 389               	.LLST10:
 390 00da 8400 0000 		.long	.LVL17-.Ltext0
 391 00de 9A00 0000 		.long	.LVL19-.Ltext0
 392 00e2 0100      		.word	0x1
 393 00e4 64        		.byte	0x64
 394 00e5 BA00 0000 		.long	.LVL23-.Ltext0
 395 00e9 C600 0000 		.long	.LVL25-.Ltext0
 396 00ed 0100      		.word	0x1
 397 00ef 64        		.byte	0x64
 398 00f0 0000 0000 		.long	0x0
 399 00f4 0000 0000 		.long	0x0
GAS LISTING /tmp/ccEPZGsr.s 			page 8


 400               	.LLST11:
 401 00f8 6000 0000 		.long	.LVL12-.Ltext0
 402 00fc 7800 0000 		.long	.LVL15-.Ltext0
 403 0100 0600      		.word	0x6
 404 0102 62        		.byte	0x62
 405 0103 93        		.byte	0x93
 406 0104 01        		.uleb128 0x1
 407 0105 63        		.byte	0x63
 408 0106 93        		.byte	0x93
 409 0107 01        		.uleb128 0x1
 410 0108 BA00 0000 		.long	.LVL23-.Ltext0
 411 010c C400 0000 		.long	.LVL24-.Ltext0
 412 0110 0600      		.word	0x6
 413 0112 62        		.byte	0x62
 414 0113 93        		.byte	0x93
 415 0114 01        		.uleb128 0x1
 416 0115 63        		.byte	0x63
 417 0116 93        		.byte	0x93
 418 0117 01        		.uleb128 0x1
 419 0118 0000 0000 		.long	0x0
 420 011c 0000 0000 		.long	0x0
 421               	.LLST12:
 422 0120 6200 0000 		.long	.LVL13-.Ltext0
 423 0124 7800 0000 		.long	.LVL15-.Ltext0
 424 0128 0100      		.word	0x1
 425 012a 64        		.byte	0x64
 426 012b BA00 0000 		.long	.LVL23-.Ltext0
 427 012f C600 0000 		.long	.LVL25-.Ltext0
 428 0133 0100      		.word	0x1
 429 0135 64        		.byte	0x64
 430 0136 0000 0000 		.long	0x0
 431 013a 0000 0000 		.long	0x0
 432               		.section	.debug_info
 433 0000 B401 0000 		.long	0x1b4
 434 0004 0200      		.word	0x2
 435 0006 0000 0000 		.long	.Ldebug_abbrev0
 436 000a 04        		.byte	0x4
 437 000b 01        		.uleb128 0x1
 438 000c 0000 0000 		.long	.LASF12
 439 0010 01        		.byte	0x1
 440 0011 0000 0000 		.long	.LASF13
 441 0015 0000 0000 		.long	.LASF14
 442 0019 0000 0000 		.long	.Ltext0
 443 001d 0000 0000 		.long	.Letext0
 444 0021 0000 0000 		.long	.Ldebug_line0
 445 0025 02        		.uleb128 0x2
 446 0026 01        		.byte	0x1
 447 0027 06        		.byte	0x6
 448 0028 0000 0000 		.long	.LASF0
 449 002c 03        		.uleb128 0x3
 450 002d 0000 0000 		.long	.LASF2
 451 0031 02        		.byte	0x2
 452 0032 7A        		.byte	0x7a
 453 0033 3700 0000 		.long	0x37
 454 0037 02        		.uleb128 0x2
 455 0038 01        		.byte	0x1
 456 0039 08        		.byte	0x8
GAS LISTING /tmp/ccEPZGsr.s 			page 9


 457 003a 0000 0000 		.long	.LASF1
 458 003e 04        		.uleb128 0x4
 459 003f 02        		.byte	0x2
 460 0040 05        		.byte	0x5
 461 0041 696E 7400 		.string	"int"
 462 0045 03        		.uleb128 0x3
 463 0046 0000 0000 		.long	.LASF3
 464 004a 02        		.byte	0x2
 465 004b 7C        		.byte	0x7c
 466 004c 5000 0000 		.long	0x50
 467 0050 02        		.uleb128 0x2
 468 0051 02        		.byte	0x2
 469 0052 07        		.byte	0x7
 470 0053 0000 0000 		.long	.LASF4
 471 0057 02        		.uleb128 0x2
 472 0058 04        		.byte	0x4
 473 0059 05        		.byte	0x5
 474 005a 0000 0000 		.long	.LASF5
 475 005e 02        		.uleb128 0x2
 476 005f 04        		.byte	0x4
 477 0060 07        		.byte	0x7
 478 0061 0000 0000 		.long	.LASF6
 479 0065 02        		.uleb128 0x2
 480 0066 08        		.byte	0x8
 481 0067 05        		.byte	0x5
 482 0068 0000 0000 		.long	.LASF7
 483 006c 02        		.uleb128 0x2
 484 006d 08        		.byte	0x8
 485 006e 07        		.byte	0x7
 486 006f 0000 0000 		.long	.LASF8
 487 0073 05        		.uleb128 0x5
 488 0074 01        		.byte	0x1
 489 0075 0000 0000 		.long	.LASF15
 490 0079 01        		.byte	0x1
 491 007a 34        		.byte	0x34
 492 007b 01        		.byte	0x1
 493 007c 4500 0000 		.long	0x45
 494 0080 01        		.byte	0x1
 495 0081 A300 0000 		.long	0xa3
 496 0085 06        		.uleb128 0x6
 497 0086 6164 6300 		.string	"adc"
 498 008a 01        		.byte	0x1
 499 008b 33        		.byte	0x33
 500 008c 2C00 0000 		.long	0x2c
 501 0090 07        		.uleb128 0x7
 502 0091 6100      		.string	"a"
 503 0093 01        		.byte	0x1
 504 0094 35        		.byte	0x35
 505 0095 4500 0000 		.long	0x45
 506 0099 07        		.uleb128 0x7
 507 009a 6900      		.string	"i"
 508 009c 01        		.byte	0x1
 509 009d 36        		.byte	0x36
 510 009e 2C00 0000 		.long	0x2c
 511 00a2 00        		.byte	0x0
 512 00a3 08        		.uleb128 0x8
 513 00a4 7300 0000 		.long	0x73
GAS LISTING /tmp/ccEPZGsr.s 			page 10


 514 00a8 0000 0000 		.long	.LFB3
 515 00ac 0000 0000 		.long	.LFE3
 516 00b0 02        		.byte	0x2
 517 00b1 90        		.byte	0x90
 518 00b2 20        		.uleb128 0x20
 519 00b3 D100 0000 		.long	0xd1
 520 00b7 09        		.uleb128 0x9
 521 00b8 8500 0000 		.long	0x85
 522 00bc 0000 0000 		.long	.LLST1
 523 00c0 0A        		.uleb128 0xa
 524 00c1 9000 0000 		.long	0x90
 525 00c5 0000 0000 		.long	.LLST2
 526 00c9 0B        		.uleb128 0xb
 527 00ca 9900 0000 		.long	0x99
 528 00ce 01        		.byte	0x1
 529 00cf 64        		.byte	0x64
 530 00d0 00        		.byte	0x0
 531 00d1 0C        		.uleb128 0xc
 532 00d2 01        		.byte	0x1
 533 00d3 0000 0000 		.long	.LASF9
 534 00d7 01        		.byte	0x1
 535 00d8 46        		.byte	0x46
 536 00d9 01        		.byte	0x1
 537 00da 0000 0000 		.long	.LFB4
 538 00de 0000 0000 		.long	.LFE4
 539 00e2 02        		.byte	0x2
 540 00e3 90        		.byte	0x90
 541 00e4 20        		.uleb128 0x20
 542 00e5 F900 0000 		.long	0xf9
 543 00e9 0D        		.uleb128 0xd
 544 00ea 0000 0000 		.long	.LASF16
 545 00ee 01        		.byte	0x1
 546 00ef 45        		.byte	0x45
 547 00f0 4500 0000 		.long	0x45
 548 00f4 0000 0000 		.long	.LLST4
 549 00f8 00        		.byte	0x0
 550 00f9 0E        		.uleb128 0xe
 551 00fa 01        		.byte	0x1
 552 00fb 0000 0000 		.long	.LASF10
 553 00ff 01        		.byte	0x1
 554 0100 13        		.byte	0x13
 555 0101 3E00 0000 		.long	0x3e
 556 0105 0000 0000 		.long	.LFB2
 557 0109 0000 0000 		.long	.LFE2
 558 010d 02        		.byte	0x2
 559 010e 90        		.byte	0x90
 560 010f 20        		.uleb128 0x20
 561 0110 B001 0000 		.long	0x1b0
 562 0114 0F        		.uleb128 0xf
 563 0115 6300      		.string	"c"
 564 0117 01        		.byte	0x1
 565 0118 14        		.byte	0x14
 566 0119 B001 0000 		.long	0x1b0
 567 011d 0000 0000 		.long	.LLST6
 568 0121 07        		.uleb128 0x7
 569 0122 6164 6300 		.string	"adc"
 570 0126 01        		.byte	0x1
GAS LISTING /tmp/ccEPZGsr.s 			page 11


 571 0127 15        		.byte	0x15
 572 0128 4500 0000 		.long	0x45
 573 012c 10        		.uleb128 0x10
 574 012d 7300 0000 		.long	0x73
 575 0131 0000 0000 		.long	.Ldebug_ranges0+0x0
 576 0135 01        		.byte	0x1
 577 0136 2A        		.byte	0x2a
 578 0137 5901 0000 		.long	0x159
 579 013b 11        		.uleb128 0x11
 580 013c B700 0000 		.long	0xb7
 581 0140 12        		.uleb128 0x12
 582 0141 0000 0000 		.long	.Ldebug_ranges0+0x18
 583 0145 0A        		.uleb128 0xa
 584 0146 9000 0000 		.long	0x90
 585 014a 0000 0000 		.long	.LLST7
 586 014e 0A        		.uleb128 0xa
 587 014f 9900 0000 		.long	0x99
 588 0153 0000 0000 		.long	.LLST8
 589 0157 00        		.byte	0x0
 590 0158 00        		.byte	0x0
 591 0159 10        		.uleb128 0x10
 592 015a 7300 0000 		.long	0x73
 593 015e 0000 0000 		.long	.Ldebug_ranges0+0x30
 594 0162 01        		.byte	0x1
 595 0163 26        		.byte	0x26
 596 0164 8601 0000 		.long	0x186
 597 0168 11        		.uleb128 0x11
 598 0169 B700 0000 		.long	0xb7
 599 016d 12        		.uleb128 0x12
 600 016e 0000 0000 		.long	.Ldebug_ranges0+0x48
 601 0172 0A        		.uleb128 0xa
 602 0173 9000 0000 		.long	0x90
 603 0177 0000 0000 		.long	.LLST9
 604 017b 0A        		.uleb128 0xa
 605 017c 9900 0000 		.long	0x99
 606 0180 0000 0000 		.long	.LLST10
 607 0184 00        		.byte	0x0
 608 0185 00        		.byte	0x0
 609 0186 13        		.uleb128 0x13
 610 0187 7300 0000 		.long	0x73
 611 018b 0000 0000 		.long	.Ldebug_ranges0+0x60
 612 018f 01        		.byte	0x1
 613 0190 22        		.byte	0x22
 614 0191 11        		.uleb128 0x11
 615 0192 B700 0000 		.long	0xb7
 616 0196 12        		.uleb128 0x12
 617 0197 0000 0000 		.long	.Ldebug_ranges0+0x78
 618 019b 0A        		.uleb128 0xa
 619 019c 9000 0000 		.long	0x90
 620 01a0 0000 0000 		.long	.LLST11
 621 01a4 0A        		.uleb128 0xa
 622 01a5 9900 0000 		.long	0x99
 623 01a9 0000 0000 		.long	.LLST12
 624 01ad 00        		.byte	0x0
 625 01ae 00        		.byte	0x0
 626 01af 00        		.byte	0x0
 627 01b0 02        		.uleb128 0x2
GAS LISTING /tmp/ccEPZGsr.s 			page 12


 628 01b1 01        		.byte	0x1
 629 01b2 08        		.byte	0x8
 630 01b3 0000 0000 		.long	.LASF11
 631 01b7 00        		.byte	0x0
 632               		.section	.debug_abbrev
 633 0000 01        		.uleb128 0x1
 634 0001 11        		.uleb128 0x11
 635 0002 01        		.byte	0x1
 636 0003 25        		.uleb128 0x25
 637 0004 0E        		.uleb128 0xe
 638 0005 13        		.uleb128 0x13
 639 0006 0B        		.uleb128 0xb
 640 0007 03        		.uleb128 0x3
 641 0008 0E        		.uleb128 0xe
 642 0009 1B        		.uleb128 0x1b
 643 000a 0E        		.uleb128 0xe
 644 000b 11        		.uleb128 0x11
 645 000c 01        		.uleb128 0x1
 646 000d 12        		.uleb128 0x12
 647 000e 01        		.uleb128 0x1
 648 000f 10        		.uleb128 0x10
 649 0010 06        		.uleb128 0x6
 650 0011 00        		.byte	0x0
 651 0012 00        		.byte	0x0
 652 0013 02        		.uleb128 0x2
 653 0014 24        		.uleb128 0x24
 654 0015 00        		.byte	0x0
 655 0016 0B        		.uleb128 0xb
 656 0017 0B        		.uleb128 0xb
 657 0018 3E        		.uleb128 0x3e
 658 0019 0B        		.uleb128 0xb
 659 001a 03        		.uleb128 0x3
 660 001b 0E        		.uleb128 0xe
 661 001c 00        		.byte	0x0
 662 001d 00        		.byte	0x0
 663 001e 03        		.uleb128 0x3
 664 001f 16        		.uleb128 0x16
 665 0020 00        		.byte	0x0
 666 0021 03        		.uleb128 0x3
 667 0022 0E        		.uleb128 0xe
 668 0023 3A        		.uleb128 0x3a
 669 0024 0B        		.uleb128 0xb
 670 0025 3B        		.uleb128 0x3b
 671 0026 0B        		.uleb128 0xb
 672 0027 49        		.uleb128 0x49
 673 0028 13        		.uleb128 0x13
 674 0029 00        		.byte	0x0
 675 002a 00        		.byte	0x0
 676 002b 04        		.uleb128 0x4
 677 002c 24        		.uleb128 0x24
 678 002d 00        		.byte	0x0
 679 002e 0B        		.uleb128 0xb
 680 002f 0B        		.uleb128 0xb
 681 0030 3E        		.uleb128 0x3e
 682 0031 0B        		.uleb128 0xb
 683 0032 03        		.uleb128 0x3
 684 0033 08        		.uleb128 0x8
GAS LISTING /tmp/ccEPZGsr.s 			page 13


 685 0034 00        		.byte	0x0
 686 0035 00        		.byte	0x0
 687 0036 05        		.uleb128 0x5
 688 0037 2E        		.uleb128 0x2e
 689 0038 01        		.byte	0x1
 690 0039 3F        		.uleb128 0x3f
 691 003a 0C        		.uleb128 0xc
 692 003b 03        		.uleb128 0x3
 693 003c 0E        		.uleb128 0xe
 694 003d 3A        		.uleb128 0x3a
 695 003e 0B        		.uleb128 0xb
 696 003f 3B        		.uleb128 0x3b
 697 0040 0B        		.uleb128 0xb
 698 0041 27        		.uleb128 0x27
 699 0042 0C        		.uleb128 0xc
 700 0043 49        		.uleb128 0x49
 701 0044 13        		.uleb128 0x13
 702 0045 20        		.uleb128 0x20
 703 0046 0B        		.uleb128 0xb
 704 0047 01        		.uleb128 0x1
 705 0048 13        		.uleb128 0x13
 706 0049 00        		.byte	0x0
 707 004a 00        		.byte	0x0
 708 004b 06        		.uleb128 0x6
 709 004c 05        		.uleb128 0x5
 710 004d 00        		.byte	0x0
 711 004e 03        		.uleb128 0x3
 712 004f 08        		.uleb128 0x8
 713 0050 3A        		.uleb128 0x3a
 714 0051 0B        		.uleb128 0xb
 715 0052 3B        		.uleb128 0x3b
 716 0053 0B        		.uleb128 0xb
 717 0054 49        		.uleb128 0x49
 718 0055 13        		.uleb128 0x13
 719 0056 00        		.byte	0x0
 720 0057 00        		.byte	0x0
 721 0058 07        		.uleb128 0x7
 722 0059 34        		.uleb128 0x34
 723 005a 00        		.byte	0x0
 724 005b 03        		.uleb128 0x3
 725 005c 08        		.uleb128 0x8
 726 005d 3A        		.uleb128 0x3a
 727 005e 0B        		.uleb128 0xb
 728 005f 3B        		.uleb128 0x3b
 729 0060 0B        		.uleb128 0xb
 730 0061 49        		.uleb128 0x49
 731 0062 13        		.uleb128 0x13
 732 0063 00        		.byte	0x0
 733 0064 00        		.byte	0x0
 734 0065 08        		.uleb128 0x8
 735 0066 2E        		.uleb128 0x2e
 736 0067 01        		.byte	0x1
 737 0068 31        		.uleb128 0x31
 738 0069 13        		.uleb128 0x13
 739 006a 11        		.uleb128 0x11
 740 006b 01        		.uleb128 0x1
 741 006c 12        		.uleb128 0x12
GAS LISTING /tmp/ccEPZGsr.s 			page 14


 742 006d 01        		.uleb128 0x1
 743 006e 40        		.uleb128 0x40
 744 006f 0A        		.uleb128 0xa
 745 0070 01        		.uleb128 0x1
 746 0071 13        		.uleb128 0x13
 747 0072 00        		.byte	0x0
 748 0073 00        		.byte	0x0
 749 0074 09        		.uleb128 0x9
 750 0075 05        		.uleb128 0x5
 751 0076 00        		.byte	0x0
 752 0077 31        		.uleb128 0x31
 753 0078 13        		.uleb128 0x13
 754 0079 02        		.uleb128 0x2
 755 007a 06        		.uleb128 0x6
 756 007b 00        		.byte	0x0
 757 007c 00        		.byte	0x0
 758 007d 0A        		.uleb128 0xa
 759 007e 34        		.uleb128 0x34
 760 007f 00        		.byte	0x0
 761 0080 31        		.uleb128 0x31
 762 0081 13        		.uleb128 0x13
 763 0082 02        		.uleb128 0x2
 764 0083 06        		.uleb128 0x6
 765 0084 00        		.byte	0x0
 766 0085 00        		.byte	0x0
 767 0086 0B        		.uleb128 0xb
 768 0087 34        		.uleb128 0x34
 769 0088 00        		.byte	0x0
 770 0089 31        		.uleb128 0x31
 771 008a 13        		.uleb128 0x13
 772 008b 02        		.uleb128 0x2
 773 008c 0A        		.uleb128 0xa
 774 008d 00        		.byte	0x0
 775 008e 00        		.byte	0x0
 776 008f 0C        		.uleb128 0xc
 777 0090 2E        		.uleb128 0x2e
 778 0091 01        		.byte	0x1
 779 0092 3F        		.uleb128 0x3f
 780 0093 0C        		.uleb128 0xc
 781 0094 03        		.uleb128 0x3
 782 0095 0E        		.uleb128 0xe
 783 0096 3A        		.uleb128 0x3a
 784 0097 0B        		.uleb128 0xb
 785 0098 3B        		.uleb128 0x3b
 786 0099 0B        		.uleb128 0xb
 787 009a 27        		.uleb128 0x27
 788 009b 0C        		.uleb128 0xc
 789 009c 11        		.uleb128 0x11
 790 009d 01        		.uleb128 0x1
 791 009e 12        		.uleb128 0x12
 792 009f 01        		.uleb128 0x1
 793 00a0 40        		.uleb128 0x40
 794 00a1 0A        		.uleb128 0xa
 795 00a2 01        		.uleb128 0x1
 796 00a3 13        		.uleb128 0x13
 797 00a4 00        		.byte	0x0
 798 00a5 00        		.byte	0x0
GAS LISTING /tmp/ccEPZGsr.s 			page 15


 799 00a6 0D        		.uleb128 0xd
 800 00a7 05        		.uleb128 0x5
 801 00a8 00        		.byte	0x0
 802 00a9 03        		.uleb128 0x3
 803 00aa 0E        		.uleb128 0xe
 804 00ab 3A        		.uleb128 0x3a
 805 00ac 0B        		.uleb128 0xb
 806 00ad 3B        		.uleb128 0x3b
 807 00ae 0B        		.uleb128 0xb
 808 00af 49        		.uleb128 0x49
 809 00b0 13        		.uleb128 0x13
 810 00b1 02        		.uleb128 0x2
 811 00b2 06        		.uleb128 0x6
 812 00b3 00        		.byte	0x0
 813 00b4 00        		.byte	0x0
 814 00b5 0E        		.uleb128 0xe
 815 00b6 2E        		.uleb128 0x2e
 816 00b7 01        		.byte	0x1
 817 00b8 3F        		.uleb128 0x3f
 818 00b9 0C        		.uleb128 0xc
 819 00ba 03        		.uleb128 0x3
 820 00bb 0E        		.uleb128 0xe
 821 00bc 3A        		.uleb128 0x3a
 822 00bd 0B        		.uleb128 0xb
 823 00be 3B        		.uleb128 0x3b
 824 00bf 0B        		.uleb128 0xb
 825 00c0 49        		.uleb128 0x49
 826 00c1 13        		.uleb128 0x13
 827 00c2 11        		.uleb128 0x11
 828 00c3 01        		.uleb128 0x1
 829 00c4 12        		.uleb128 0x12
 830 00c5 01        		.uleb128 0x1
 831 00c6 40        		.uleb128 0x40
 832 00c7 0A        		.uleb128 0xa
 833 00c8 01        		.uleb128 0x1
 834 00c9 13        		.uleb128 0x13
 835 00ca 00        		.byte	0x0
 836 00cb 00        		.byte	0x0
 837 00cc 0F        		.uleb128 0xf
 838 00cd 34        		.uleb128 0x34
 839 00ce 00        		.byte	0x0
 840 00cf 03        		.uleb128 0x3
 841 00d0 08        		.uleb128 0x8
 842 00d1 3A        		.uleb128 0x3a
 843 00d2 0B        		.uleb128 0xb
 844 00d3 3B        		.uleb128 0x3b
 845 00d4 0B        		.uleb128 0xb
 846 00d5 49        		.uleb128 0x49
 847 00d6 13        		.uleb128 0x13
 848 00d7 02        		.uleb128 0x2
 849 00d8 06        		.uleb128 0x6
 850 00d9 00        		.byte	0x0
 851 00da 00        		.byte	0x0
 852 00db 10        		.uleb128 0x10
 853 00dc 1D        		.uleb128 0x1d
 854 00dd 01        		.byte	0x1
 855 00de 31        		.uleb128 0x31
GAS LISTING /tmp/ccEPZGsr.s 			page 16


 856 00df 13        		.uleb128 0x13
 857 00e0 55        		.uleb128 0x55
 858 00e1 06        		.uleb128 0x6
 859 00e2 58        		.uleb128 0x58
 860 00e3 0B        		.uleb128 0xb
 861 00e4 59        		.uleb128 0x59
 862 00e5 0B        		.uleb128 0xb
 863 00e6 01        		.uleb128 0x1
 864 00e7 13        		.uleb128 0x13
 865 00e8 00        		.byte	0x0
 866 00e9 00        		.byte	0x0
 867 00ea 11        		.uleb128 0x11
 868 00eb 05        		.uleb128 0x5
 869 00ec 00        		.byte	0x0
 870 00ed 31        		.uleb128 0x31
 871 00ee 13        		.uleb128 0x13
 872 00ef 00        		.byte	0x0
 873 00f0 00        		.byte	0x0
 874 00f1 12        		.uleb128 0x12
 875 00f2 0B        		.uleb128 0xb
 876 00f3 01        		.byte	0x1
 877 00f4 55        		.uleb128 0x55
 878 00f5 06        		.uleb128 0x6
 879 00f6 00        		.byte	0x0
 880 00f7 00        		.byte	0x0
 881 00f8 13        		.uleb128 0x13
 882 00f9 1D        		.uleb128 0x1d
 883 00fa 01        		.byte	0x1
 884 00fb 31        		.uleb128 0x31
 885 00fc 13        		.uleb128 0x13
 886 00fd 55        		.uleb128 0x55
 887 00fe 06        		.uleb128 0x6
 888 00ff 58        		.uleb128 0x58
 889 0100 0B        		.uleb128 0xb
 890 0101 59        		.uleb128 0x59
 891 0102 0B        		.uleb128 0xb
 892 0103 00        		.byte	0x0
 893 0104 00        		.byte	0x0
 894 0105 00        		.byte	0x0
 895               		.section	.debug_pubnames,"",@progbits
 896 0000 3100 0000 		.long	0x31
 897 0004 0200      		.word	0x2
 898 0006 0000 0000 		.long	.Ldebug_info0
 899 000a B801 0000 		.long	0x1b8
 900 000e A300 0000 		.long	0xa3
 901 0012 7265 6164 		.string	"read_adc"
 901      5F61 6463 
 901      00
 902 001b D100 0000 		.long	0xd1
 903 001f 7075 745F 		.string	"put_word"
 903      776F 7264 
 903      00
 904 0028 F900 0000 		.long	0xf9
 905 002c 6D61 696E 		.string	"main"
 905      00
 906 0031 0000 0000 		.long	0x0
 907               		.section	.debug_aranges,"",@progbits
GAS LISTING /tmp/ccEPZGsr.s 			page 17


 908 0000 1C00 0000 		.long	0x1c
 909 0004 0200      		.word	0x2
 910 0006 0000 0000 		.long	.Ldebug_info0
 911 000a 04        		.byte	0x4
 912 000b 00        		.byte	0x0
 913 000c 0000      		.word	0x0
 914 000e 0000      		.word	0x0
 915 0010 0000 0000 		.long	.Ltext0
 916 0014 C800 0000 		.long	.Letext0-.Ltext0
 917 0018 0000 0000 		.long	0x0
 918 001c 0000 0000 		.long	0x0
 919               		.section	.debug_ranges,"",@progbits
 920               	.Ldebug_ranges0:
 921 0000 4600 0000 		.long	.LBB8-.Ltext0
 922 0004 4A00 0000 		.long	.LBE8-.Ltext0
 923 0008 9E00 0000 		.long	.LBB19-.Ltext0
 924 000c BA00 0000 		.long	.LBE19-.Ltext0
 925 0010 0000 0000 		.long	0x0
 926 0014 0000 0000 		.long	0x0
 927 0018 4600 0000 		.long	.LBB9-.Ltext0
 928 001c 4A00 0000 		.long	.LBE9-.Ltext0
 929 0020 9E00 0000 		.long	.LBB10-.Ltext0
 930 0024 BA00 0000 		.long	.LBE10-.Ltext0
 931 0028 0000 0000 		.long	0x0
 932 002c 0000 0000 		.long	0x0
 933 0030 4A00 0000 		.long	.LBB11-.Ltext0
 934 0034 4C00 0000 		.long	.LBE11-.Ltext0
 935 0038 7C00 0000 		.long	.LBB18-.Ltext0
 936 003c 9A00 0000 		.long	.LBE18-.Ltext0
 937 0040 0000 0000 		.long	0x0
 938 0044 0000 0000 		.long	0x0
 939 0048 4A00 0000 		.long	.LBB12-.Ltext0
 940 004c 4C00 0000 		.long	.LBE12-.Ltext0
 941 0050 7C00 0000 		.long	.LBB13-.Ltext0
 942 0054 9A00 0000 		.long	.LBE13-.Ltext0
 943 0058 0000 0000 		.long	0x0
 944 005c 0000 0000 		.long	0x0
 945 0060 4C00 0000 		.long	.LBB14-.Ltext0
 946 0064 4E00 0000 		.long	.LBE14-.Ltext0
 947 0068 5A00 0000 		.long	.LBB17-.Ltext0
 948 006c 7800 0000 		.long	.LBE17-.Ltext0
 949 0070 0000 0000 		.long	0x0
 950 0074 0000 0000 		.long	0x0
 951 0078 4C00 0000 		.long	.LBB15-.Ltext0
 952 007c 4E00 0000 		.long	.LBE15-.Ltext0
 953 0080 5A00 0000 		.long	.LBB16-.Ltext0
 954 0084 7800 0000 		.long	.LBE16-.Ltext0
 955 0088 0000 0000 		.long	0x0
 956 008c 0000 0000 		.long	0x0
 957               		.section	.debug_line
 958 0000 A101 0000 		.long	.LELT0-.LSLT0
 959               	.LSLT0:
 960 0004 0200      		.word	0x2
 961 0006 5F00 0000 		.long	.LELTP0-.LASLTP0
 962               	.LASLTP0:
 963 000a 01        		.byte	0x1
 964 000b 01        		.byte	0x1
GAS LISTING /tmp/ccEPZGsr.s 			page 18


 965 000c F6        		.byte	0xf6
 966 000d F5        		.byte	0xf5
 967 000e 0A        		.byte	0xa
 968 000f 00        		.byte	0x0
 969 0010 01        		.byte	0x1
 970 0011 01        		.byte	0x1
 971 0012 01        		.byte	0x1
 972 0013 01        		.byte	0x1
 973 0014 00        		.byte	0x0
 974 0015 00        		.byte	0x0
 975 0016 00        		.byte	0x0
 976 0017 01        		.byte	0x1
 977 0018 2F6F 7074 		.ascii	"/opt/cross/avr/lib/gcc/avr/4.3.3/../../../../avr/include"
 977      2F63 726F 
 977      7373 2F61 
 977      7672 2F6C 
 977      6962 2F67 
 978 0050 00        		.byte	0
 979 0051 00        		.byte	0x0
 980 0052 6D61 696E 		.string	"main.c"
 980      2E63 00
 981 0059 00        		.uleb128 0x0
 982 005a 00        		.uleb128 0x0
 983 005b 00        		.uleb128 0x0
 984 005c 7374 6469 		.string	"stdint.h"
 984      6E74 2E68 
 984      00
 985 0065 01        		.uleb128 0x1
 986 0066 00        		.uleb128 0x0
 987 0067 00        		.uleb128 0x0
 988 0068 00        		.byte	0x0
 989               	.LELTP0:
 990 0069 00        		.byte	0x0
 991 006a 05        		.uleb128 0x5
 992 006b 02        		.byte	0x2
 993 006c 0000 0000 		.long	.LM1
 994 0070 47        		.byte	0x47
 995 0071 00        		.byte	0x0
 996 0072 05        		.uleb128 0x5
 997 0073 02        		.byte	0x2
 998 0074 0000 0000 		.long	.LM2
 999 0078 18        		.byte	0x18
 1000 0079 00        		.byte	0x0
 1001 007a 05        		.uleb128 0x5
 1002 007b 02        		.byte	0x2
 1003 007c 0000 0000 		.long	.LM3
 1004 0080 17        		.byte	0x17
 1005 0081 00        		.byte	0x0
 1006 0082 05        		.uleb128 0x5
 1007 0083 02        		.byte	0x2
 1008 0084 0000 0000 		.long	.LM4
 1009 0088 15        		.byte	0x15
 1010 0089 00        		.byte	0x0
 1011 008a 05        		.uleb128 0x5
 1012 008b 02        		.byte	0x2
 1013 008c 0000 0000 		.long	.LM5
 1014 0090 15        		.byte	0x15
GAS LISTING /tmp/ccEPZGsr.s 			page 19


 1015 0091 00        		.byte	0x0
 1016 0092 05        		.uleb128 0x5
 1017 0093 02        		.byte	0x2
 1018 0094 0000 0000 		.long	.LM6
 1019 0098 11        		.byte	0x11
 1020 0099 00        		.byte	0x0
 1021 009a 05        		.uleb128 0x5
 1022 009b 02        		.byte	0x2
 1023 009c 0000 0000 		.long	.LM7
 1024 00a0 1D        		.byte	0x1d
 1025 00a1 00        		.byte	0x0
 1026 00a2 05        		.uleb128 0x5
 1027 00a3 02        		.byte	0x2
 1028 00a4 0000 0000 		.long	.LM8
 1029 00a8 17        		.byte	0x17
 1030 00a9 00        		.byte	0x0
 1031 00aa 05        		.uleb128 0x5
 1032 00ab 02        		.byte	0x2
 1033 00ac 0000 0000 		.long	.LM9
 1034 00b0 15        		.byte	0x15
 1035 00b1 00        		.byte	0x0
 1036 00b2 05        		.uleb128 0x5
 1037 00b3 02        		.byte	0x2
 1038 00b4 0000 0000 		.long	.LM10
 1039 00b8 15        		.byte	0x15
 1040 00b9 00        		.byte	0x0
 1041 00ba 05        		.uleb128 0x5
 1042 00bb 02        		.byte	0x2
 1043 00bc 0000 0000 		.long	.LM11
 1044 00c0 15        		.byte	0x15
 1045 00c1 00        		.byte	0x0
 1046 00c2 05        		.uleb128 0x5
 1047 00c3 02        		.byte	0x2
 1048 00c4 0000 0000 		.long	.LM12
 1049 00c8 03        		.byte	0x3
 1050 00c9 4A        		.sleb128 -54
 1051 00ca 01        		.byte	0x1
 1052 00cb 00        		.byte	0x0
 1053 00cc 05        		.uleb128 0x5
 1054 00cd 02        		.byte	0x2
 1055 00ce 0000 0000 		.long	.LM13
 1056 00d2 18        		.byte	0x18
 1057 00d3 00        		.byte	0x0
 1058 00d4 05        		.uleb128 0x5
 1059 00d5 02        		.byte	0x2
 1060 00d6 0000 0000 		.long	.LM14
 1061 00da 15        		.byte	0x15
 1062 00db 00        		.byte	0x0
 1063 00dc 05        		.uleb128 0x5
 1064 00dd 02        		.byte	0x2
 1065 00de 0000 0000 		.long	.LM15
 1066 00e2 17        		.byte	0x17
 1067 00e3 00        		.byte	0x0
 1068 00e4 05        		.uleb128 0x5
 1069 00e5 02        		.byte	0x2
 1070 00e6 0000 0000 		.long	.LM16
 1071 00ea 31        		.byte	0x31
GAS LISTING /tmp/ccEPZGsr.s 			page 20


 1072 00eb 00        		.byte	0x0
 1073 00ec 05        		.uleb128 0x5
 1074 00ed 02        		.byte	0x2
 1075 00ee 0000 0000 		.long	.LM17
 1076 00f2 03        		.byte	0x3
 1077 00f3 66        		.sleb128 -26
 1078 00f4 01        		.byte	0x1
 1079 00f5 00        		.byte	0x0
 1080 00f6 05        		.uleb128 0x5
 1081 00f7 02        		.byte	0x2
 1082 00f8 0000 0000 		.long	.LM18
 1083 00fc 15        		.byte	0x15
 1084 00fd 00        		.byte	0x0
 1085 00fe 05        		.uleb128 0x5
 1086 00ff 02        		.byte	0x2
 1087 0100 0000 0000 		.long	.LM19
 1088 0104 16        		.byte	0x16
 1089 0105 00        		.byte	0x0
 1090 0106 05        		.uleb128 0x5
 1091 0107 02        		.byte	0x2
 1092 0108 0000 0000 		.long	.LM20
 1093 010c 2B        		.byte	0x2b
 1094 010d 00        		.byte	0x0
 1095 010e 05        		.uleb128 0x5
 1096 010f 02        		.byte	0x2
 1097 0110 0000 0000 		.long	.LM21
 1098 0114 17        		.byte	0x17
 1099 0115 00        		.byte	0x0
 1100 0116 05        		.uleb128 0x5
 1101 0117 02        		.byte	0x2
 1102 0118 0000 0000 		.long	.LM22
 1103 011c 15        		.byte	0x15
 1104 011d 00        		.byte	0x0
 1105 011e 05        		.uleb128 0x5
 1106 011f 02        		.byte	0x2
 1107 0120 0000 0000 		.long	.LM23
 1108 0124 15        		.byte	0x15
 1109 0125 00        		.byte	0x0
 1110 0126 05        		.uleb128 0x5
 1111 0127 02        		.byte	0x2
 1112 0128 0000 0000 		.long	.LM24
 1113 012c 11        		.byte	0x11
 1114 012d 00        		.byte	0x0
 1115 012e 05        		.uleb128 0x5
 1116 012f 02        		.byte	0x2
 1117 0130 0000 0000 		.long	.LM25
 1118 0134 03        		.byte	0x3
 1119 0135 6B        		.sleb128 -21
 1120 0136 01        		.byte	0x1
 1121 0137 00        		.byte	0x0
 1122 0138 05        		.uleb128 0x5
 1123 0139 02        		.byte	0x2
 1124 013a 0000 0000 		.long	.LM26
 1125 013e 27        		.byte	0x27
 1126 013f 00        		.byte	0x0
 1127 0140 05        		.uleb128 0x5
 1128 0141 02        		.byte	0x2
GAS LISTING /tmp/ccEPZGsr.s 			page 21


 1129 0142 0000 0000 		.long	.LM27
 1130 0146 17        		.byte	0x17
 1131 0147 00        		.byte	0x0
 1132 0148 05        		.uleb128 0x5
 1133 0149 02        		.byte	0x2
 1134 014a 0000 0000 		.long	.LM28
 1135 014e 15        		.byte	0x15
 1136 014f 00        		.byte	0x0
 1137 0150 05        		.uleb128 0x5
 1138 0151 02        		.byte	0x2
 1139 0152 0000 0000 		.long	.LM29
 1140 0156 15        		.byte	0x15
 1141 0157 00        		.byte	0x0
 1142 0158 05        		.uleb128 0x5
 1143 0159 02        		.byte	0x2
 1144 015a 0000 0000 		.long	.LM30
 1145 015e 11        		.byte	0x11
 1146 015f 00        		.byte	0x0
 1147 0160 05        		.uleb128 0x5
 1148 0161 02        		.byte	0x2
 1149 0162 0000 0000 		.long	.LM31
 1150 0166 03        		.byte	0x3
 1151 0167 6F        		.sleb128 -17
 1152 0168 01        		.byte	0x1
 1153 0169 00        		.byte	0x0
 1154 016a 05        		.uleb128 0x5
 1155 016b 02        		.byte	0x2
 1156 016c 0000 0000 		.long	.LM32
 1157 0170 23        		.byte	0x23
 1158 0171 00        		.byte	0x0
 1159 0172 05        		.uleb128 0x5
 1160 0173 02        		.byte	0x2
 1161 0174 0000 0000 		.long	.LM33
 1162 0178 17        		.byte	0x17
 1163 0179 00        		.byte	0x0
 1164 017a 05        		.uleb128 0x5
 1165 017b 02        		.byte	0x2
 1166 017c 0000 0000 		.long	.LM34
 1167 0180 15        		.byte	0x15
 1168 0181 00        		.byte	0x0
 1169 0182 05        		.uleb128 0x5
 1170 0183 02        		.byte	0x2
 1171 0184 0000 0000 		.long	.LM35
 1172 0188 15        		.byte	0x15
 1173 0189 00        		.byte	0x0
 1174 018a 05        		.uleb128 0x5
 1175 018b 02        		.byte	0x2
 1176 018c 0000 0000 		.long	.LM36
 1177 0190 11        		.byte	0x11
 1178 0191 00        		.byte	0x0
 1179 0192 05        		.uleb128 0x5
 1180 0193 02        		.byte	0x2
 1181 0194 0000 0000 		.long	.LM37
 1182 0198 03        		.byte	0x3
 1183 0199 71        		.sleb128 -15
 1184 019a 01        		.byte	0x1
 1185 019b 00        		.byte	0x0
GAS LISTING /tmp/ccEPZGsr.s 			page 22


 1186 019c 05        		.uleb128 0x5
 1187 019d 02        		.byte	0x2
 1188 019e 0000 0000 		.long	.Letext0
 1189 01a2 00        		.byte	0x0
 1190 01a3 01        		.uleb128 0x1
 1191 01a4 01        		.byte	0x1
 1192               	.LELT0:
 1193 01a5 1900 0000 		.section	.debug_str,"MS",@progbits,1
 1193      0200 1300 
 1193      0000 0101 
 1193      FB0E 0D00 
 1193      0101 0101 
 1194               	.LASF16:
 1195 0000 776F 7264 		.string	"word"
 1195      00
 1196               	.LASF9:
 1197 0005 7075 745F 		.string	"put_word"
 1197      776F 7264 
 1197      00
 1198               	.LASF15:
 1199 000e 7265 6164 		.string	"read_adc"
 1199      5F61 6463 
 1199      00
 1200               	.LASF1:
 1201 0017 756E 7369 		.string	"unsigned char"
 1201      676E 6564 
 1201      2063 6861 
 1201      7200 
 1202               	.LASF6:
 1203 0025 6C6F 6E67 		.string	"long unsigned int"
 1203      2075 6E73 
 1203      6967 6E65 
 1203      6420 696E 
 1203      7400 
 1204               	.LASF12:
 1205 0037 474E 5520 		.string	"GNU C 4.3.3"
 1205      4320 342E 
 1205      332E 3300 
 1206               	.LASF10:
 1207 0043 6D61 696E 		.string	"main"
 1207      00
 1208               	.LASF4:
 1209 0048 756E 7369 		.string	"unsigned int"
 1209      676E 6564 
 1209      2069 6E74 
 1209      00
 1210               	.LASF8:
 1211 0055 6C6F 6E67 		.string	"long long unsigned int"
 1211      206C 6F6E 
 1211      6720 756E 
 1211      7369 676E 
 1211      6564 2069 
 1212               	.LASF2:
 1213 006c 7569 6E74 		.string	"uint8_t"
 1213      385F 7400 
 1214               	.LASF7:
 1215 0074 6C6F 6E67 		.string	"long long int"
GAS LISTING /tmp/ccEPZGsr.s 			page 23


 1215      206C 6F6E 
 1215      6720 696E 
 1215      7400 
 1216               	.LASF13:
 1217 0082 6D61 696E 		.string	"main.c"
 1217      2E63 00
 1218               	.LASF11:
 1219 0089 6368 6172 		.string	"char"
 1219      00
 1220               	.LASF3:
 1221 008e 7569 6E74 		.string	"uint16_t"
 1221      3136 5F74 
 1221      00
 1222               	.LASF14:
 1223 0097 2F68 6F6D 		.string	"/home/mo/engineering/projects/ada"
 1223      652F 6D6F 
 1223      2F65 6E67 
 1223      696E 6565 
 1223      7269 6E67 
 1224               	.LASF5:
 1225 00b9 6C6F 6E67 		.string	"long int"
 1225      2069 6E74 
 1225      00
 1226               	.LASF0:
 1227 00c2 7369 676E 		.string	"signed char"
 1227      6564 2063 
 1227      6861 7200 
GAS LISTING /tmp/ccEPZGsr.s 			page 24


DEFINED SYMBOLS
                            *ABS*:00000000 main.c
     /tmp/ccEPZGsr.s:2      *ABS*:0000003f __SREG__
     /tmp/ccEPZGsr.s:3      *ABS*:0000003e __SP_H__
     /tmp/ccEPZGsr.s:4      *ABS*:0000003d __SP_L__
     /tmp/ccEPZGsr.s:5      *ABS*:00000034 __CCP__
     /tmp/ccEPZGsr.s:6      *ABS*:00000000 __tmp_reg__
     /tmp/ccEPZGsr.s:7      *ABS*:00000001 __zero_reg__
     /tmp/ccEPZGsr.s:20     .text:00000000 read_adc
     /tmp/ccEPZGsr.s:63     .text:00000028 put_word
     /tmp/ccEPZGsr.s:88     .text:00000038 main

UNDEFINED SYMBOLS
__do_copy_data
__do_clear_bss
softuart_putchar
softuart_init
softuart_kbhit
softuart_getchar
