GAS LISTING /tmp/cc4iyc4l.s 			page 1


   1               		.file	"softuart.c"
   2               	__SREG__ = 0x3f
   3               	__SP_H__ = 0x3e
   4               	__SP_L__ = 0x3d
   5               	__CCP__  = 0x34
   6               	__tmp_reg__ = 0
   7               	__zero_reg__ = 1
   8               		.global __do_copy_data
   9               		.global __do_clear_bss
  10               		.section	.debug_abbrev,"",@progbits
  11               	.Ldebug_abbrev0:
  12               		.section	.debug_info,"",@progbits
  13               	.Ldebug_info0:
  14               		.section	.debug_line,"",@progbits
  15               	.Ldebug_line0:
  16               		.text
  17               	.Ltext0:
  18               	.global	__vector_10
  19               		.type	__vector_10, @function
  20               	__vector_10:
  21               	.LFB2:
  22               	.LM1:
  23 0000 1F92      		push __zero_reg__
  24 0002 0F92      		push r0
  25 0004 0FB6      		in r0,__SREG__
  26 0006 0F92      		push r0
  27 0008 1124      		clr __zero_reg__
  28 000a 8F93      		push r24
  29 000c 9F93      		push r25
  30 000e EF93      		push r30
  31 0010 FF93      		push r31
  32               	/* prologue: Signal */
  33               	/* frame size = 0 */
  34               	.LM2:
  35 0012 8091 0000 		lds r24,flag_tx_busy
  36 0016 8130      		cpi r24,lo8(1)
  37 0018 01F4      		brne .L2
  38               	.LM3:
  39 001a 8091 0000 		lds r24,timer_tx_ctr
  40               	.LVL0:
  41               	.LM4:
  42 001e 8150      		subi r24,lo8(-(-1))
  43 0020 01F4      		brne .L3
  44               	.LM5:
  45 0022 8091 0000 		lds r24,internal_tx_buffer
  46 0026 9091 0000 		lds r25,(internal_tx_buffer)+1
  47               	.LVL1:
  48 002a 80FF      		sbrs r24,0
  49 002c 00C0      		rjmp .L4
  50               	.LM6:
  51 002e C19A      		sbi 56-32,1
  52 0030 00C0      		rjmp .L5
  53               	.L4:
  54               	.LM7:
  55 0032 C198      		cbi 56-32,1
  56               	.L5:
  57               	.LM8:
GAS LISTING /tmp/cc4iyc4l.s 			page 2


  58 0034 8091 0000 		lds r24,internal_tx_buffer
  59 0038 9091 0000 		lds r25,(internal_tx_buffer)+1
  60 003c 9695      		lsr r25
  61 003e 8795      		ror r24
  62 0040 9093 0000 		sts (internal_tx_buffer)+1,r25
  63 0044 8093 0000 		sts internal_tx_buffer,r24
  64               	.LM9:
  65 0048 8091 0000 		lds r24,bits_left_in_tx
  66 004c 8150      		subi r24,lo8(-(-1))
  67 004e 8093 0000 		sts bits_left_in_tx,r24
  68 0052 8091 0000 		lds r24,bits_left_in_tx
  69 0056 8823      		tst r24
  70 0058 01F4      		brne .L14
  71               	.L6:
  72               	.LM10:
  73 005a 1092 0000 		sts flag_tx_busy,__zero_reg__
  74               	.L14:
  75 005e 83E0      		ldi r24,lo8(3)
  76               	.LVL2:
  77               	.L3:
  78               	.LM11:
  79 0060 8093 0000 		sts timer_tx_ctr,r24
  80               	.L2:
  81               	.LM12:
  82 0064 8091 0000 		lds r24,flag_rx_off
  83               	.LVL3:
  84 0068 8823      		tst r24
  85 006a 01F0      		breq .+2
  86 006c 00C0      		rjmp .L13
  87               	.LM13:
  88 006e 8091 0000 		lds r24,flag_rx_waiting_for_stop_bit.1403
  89 0072 8823      		tst r24
  90 0074 01F0      		breq .L8
  91               	.LM14:
  92 0076 8091 0000 		lds r24,timer_rx_ctr.1405
  93 007a 8150      		subi r24,lo8(-(-1))
  94 007c 8093 0000 		sts timer_rx_ctr.1405,r24
  95 0080 8823      		tst r24
  96 0082 01F0      		breq .+2
  97 0084 00C0      		rjmp .L13
  98               	.LM15:
  99 0086 1092 0000 		sts flag_rx_waiting_for_stop_bit.1403,__zero_reg__
 100               	.LM16:
 101 008a 1092 0000 		sts flag_rx_ready,__zero_reg__
 102               	.LM17:
 103 008e E091 0000 		lds r30,qin
 104 0092 F0E0      		ldi r31,lo8(0)
 105 0094 8091 0000 		lds r24,internal_rx_buffer.1407
 106 0098 E050      		subi r30,lo8(-(inbuf))
 107 009a F040      		sbci r31,hi8(-(inbuf))
 108 009c 8083      		st Z,r24
 109               	.LM18:
 110 009e 8091 0000 		lds r24,qin
 111 00a2 8F5F      		subi r24,lo8(-(1))
 112 00a4 8093 0000 		sts qin,r24
 113 00a8 8091 0000 		lds r24,qin
 114 00ac 8032      		cpi r24,lo8(32)
GAS LISTING /tmp/cc4iyc4l.s 			page 3


 115 00ae 00F0      		brlo .L13
 116               	.LM19:
 117 00b0 1092 0000 		sts qin,__zero_reg__
 118 00b4 00C0      		rjmp .L13
 119               	.L8:
 120               	.LM20:
 121 00b6 8091 0000 		lds r24,flag_rx_ready
 122 00ba 8823      		tst r24
 123 00bc 01F4      		brne .L9
 124               	.LM21:
 125 00be B099      		sbic 54-32,0
 126 00c0 00C0      		rjmp .L13
 127               	.LM22:
 128 00c2 81E0      		ldi r24,lo8(1)
 129 00c4 8093 0000 		sts flag_rx_ready,r24
 130               	.LM23:
 131 00c8 1092 0000 		sts internal_rx_buffer.1407,__zero_reg__
 132               	.LM24:
 133 00cc 94E0      		ldi r25,lo8(4)
 134 00ce 9093 0000 		sts timer_rx_ctr.1405,r25
 135               	.LM25:
 136 00d2 98E0      		ldi r25,lo8(8)
 137 00d4 9093 0000 		sts bits_left_in_rx.1406,r25
 138               	.LM26:
 139 00d8 8093 0000 		sts rx_mask.1404,r24
 140 00dc 00C0      		rjmp .L13
 141               	.L9:
 142               	.LM27:
 143 00de 8091 0000 		lds r24,timer_rx_ctr.1405
 144               	.LVL4:
 145               	.LM28:
 146 00e2 8150      		subi r24,lo8(-(-1))
 147 00e4 01F4      		brne .L10
 148               	.LM29:
 149 00e6 B09B      		sbis 54-32,0
 150 00e8 00C0      		rjmp .L11
 151               	.LM30:
 152 00ea 8091 0000 		lds r24,internal_rx_buffer.1407
 153               	.LVL5:
 154 00ee 9091 0000 		lds r25,rx_mask.1404
 155 00f2 892B      		or r24,r25
 156 00f4 8093 0000 		sts internal_rx_buffer.1407,r24
 157               	.LVL6:
 158               	.L11:
 159               	.LM31:
 160 00f8 8091 0000 		lds r24,rx_mask.1404
 161               	.LVL7:
 162 00fc 880F      		lsl r24
 163 00fe 8093 0000 		sts rx_mask.1404,r24
 164               	.LM32:
 165 0102 8091 0000 		lds r24,bits_left_in_rx.1406
 166 0106 8150      		subi r24,lo8(-(-1))
 167 0108 8093 0000 		sts bits_left_in_rx.1406,r24
 168 010c 8823      		tst r24
 169 010e 01F4      		brne .L15
 170               	.L12:
 171               	.LM33:
GAS LISTING /tmp/cc4iyc4l.s 			page 4


 172 0110 81E0      		ldi r24,lo8(1)
 173 0112 8093 0000 		sts flag_rx_waiting_for_stop_bit.1403,r24
 174               	.L15:
 175 0116 83E0      		ldi r24,lo8(3)
 176               	.LVL8:
 177               	.L10:
 178               	.LM34:
 179 0118 8093 0000 		sts timer_rx_ctr.1405,r24
 180               	.L13:
 181               	/* epilogue start */
 182               	.LM35:
 183 011c FF91      		pop r31
 184 011e EF91      		pop r30
 185 0120 9F91      		pop r25
 186 0122 8F91      		pop r24
 187               	.LVL9:
 188 0124 0F90      		pop r0
 189 0126 0FBE      		out __SREG__,r0
 190 0128 0F90      		pop r0
 191 012a 1F90      		pop __zero_reg__
 192 012c 1895      		reti
 193               	.LFE2:
 194               		.size	__vector_10, .-__vector_10
 195               	.global	softuart_init
 196               		.type	softuart_init, @function
 197               	softuart_init:
 198               	.LFB5:
 199               	.LM36:
 200               	/* prologue: function */
 201               	/* frame size = 0 */
 202               	.LM37:
 203 012e 1092 0000 		sts flag_tx_busy,__zero_reg__
 204               	.LM38:
 205 0132 1092 0000 		sts flag_rx_ready,__zero_reg__
 206               	.LM39:
 207 0136 1092 0000 		sts flag_rx_off,__zero_reg__
 208               	.LM40:
 209 013a C19A      		sbi 56-32,1
 210               	.LBB13:
 211               	.LBB14:
 212               	.LM41:
 213 013c B99A      		sbi 55-32,1
 214               	.LM42:
 215 013e B898      		cbi 55-32,0
 216               	.LBE14:
 217               	.LBE13:
 218               	.LBB15:
 219               	.LBB16:
 220               	.LM43:
 221 0140 9FB7      		in r25,__SREG__
 222               	.LVL10:
 223               	.LM44:
 224               	/* #APP */
 225               	 ;  258 "softuart.c" 1
 226 0142 F894      		cli
 227               	 ;  0 "" 2
 228               	.LM45:
GAS LISTING /tmp/cc4iyc4l.s 			page 5


 229               	/* #NOAPP */
 230 0144 81E2      		ldi r24,lo8(33)
 231 0146 89BD      		out 73-32,r24
 232               	.LM46:
 233 0148 82E0      		ldi r24,lo8(2)
 234 014a 8ABD      		out 74-32,r24
 235               	.LM47:
 236 014c 83BF      		out 83-32,r24
 237               	.LM48:
 238 014e 89B7      		in r24,89-32
 239 0150 8061      		ori r24,lo8(16)
 240 0152 89BF      		out 89-32,r24
 241               	.LM49:
 242 0154 12BE      		out 82-32,__zero_reg__
 243               	.LM50:
 244 0156 9FBF      		out __SREG__,r25
 245               	/* epilogue start */
 246               	.LBE16:
 247               	.LBE15:
 248               	.LM51:
 249 0158 0895      		ret
 250               	.LFE5:
 251               		.size	softuart_init, .-softuart_init
 252               	.global	softuart_turn_rx_on
 253               		.type	softuart_turn_rx_on, @function
 254               	softuart_turn_rx_on:
 255               	.LFB7:
 256               	.LM52:
 257               	/* prologue: function */
 258               	/* frame size = 0 */
 259               	.LM53:
 260 015a 1092 0000 		sts flag_rx_off,__zero_reg__
 261               	/* epilogue start */
 262               	.LM54:
 263 015e 0895      		ret
 264               	.LFE7:
 265               		.size	softuart_turn_rx_on, .-softuart_turn_rx_on
 266               	.global	softuart_turn_rx_off
 267               		.type	softuart_turn_rx_off, @function
 268               	softuart_turn_rx_off:
 269               	.LFB8:
 270               	.LM55:
 271               	/* prologue: function */
 272               	/* frame size = 0 */
 273               	.LM56:
 274 0160 81E0      		ldi r24,lo8(1)
 275 0162 8093 0000 		sts flag_rx_off,r24
 276               	/* epilogue start */
 277               	.LM57:
 278 0166 0895      		ret
 279               	.LFE8:
 280               		.size	softuart_turn_rx_off, .-softuart_turn_rx_off
 281               	.global	softuart_getchar
 282               		.type	softuart_getchar, @function
 283               	softuart_getchar:
 284               	.LFB9:
 285               	.LM58:
GAS LISTING /tmp/cc4iyc4l.s 			page 6


 286               	/* prologue: function */
 287               	/* frame size = 0 */
 288               	.LM59:
 289 0168 9091 0000 		lds r25,qout
 290               	.L23:
 291 016c 8091 0000 		lds r24,qin
 292 0170 9817      		cp r25,r24
 293 0172 01F0      		breq .L23
 294               	.LM60:
 295 0174 E92F      		mov r30,r25
 296 0176 F0E0      		ldi r31,lo8(0)
 297 0178 E050      		subi r30,lo8(-(inbuf))
 298 017a F040      		sbci r31,hi8(-(inbuf))
 299 017c E081      		ld r30,Z
 300               	.LVL11:
 301               	.LM61:
 302 017e 892F      		mov r24,r25
 303 0180 8F5F      		subi r24,lo8(-(1))
 304 0182 8093 0000 		sts qout,r24
 305 0186 8032      		cpi r24,lo8(32)
 306 0188 00F0      		brlo .L24
 307               	.LM62:
 308 018a 1092 0000 		sts qout,__zero_reg__
 309               	.L24:
 310               	.LM63:
 311 018e 8E2F      		mov r24,r30
 312               	/* epilogue start */
 313 0190 0895      		ret
 314               	.LFE9:
 315               		.size	softuart_getchar, .-softuart_getchar
 316               	.global	softuart_kbhit
 317               		.type	softuart_kbhit, @function
 318               	softuart_kbhit:
 319               	.LFB10:
 320               	.LM64:
 321               	/* prologue: function */
 322               	/* frame size = 0 */
 323               	.LM65:
 324 0192 9091 0000 		lds r25,qin
 325 0196 20E0      		ldi r18,lo8(0)
 326 0198 8091 0000 		lds r24,qout
 327 019c 9813      		cpse r25,r24
 328 019e 21E0      		ldi r18,lo8(1)
 329               	.L28:
 330               	.LM66:
 331 01a0 822F      		mov r24,r18
 332               	/* epilogue start */
 333 01a2 0895      		ret
 334               	.LFE10:
 335               		.size	softuart_kbhit, .-softuart_kbhit
 336               	.global	softuart_flush_input_buffer
 337               		.type	softuart_flush_input_buffer, @function
 338               	softuart_flush_input_buffer:
 339               	.LFB11:
 340               	.LM67:
 341               	/* prologue: function */
 342               	/* frame size = 0 */
GAS LISTING /tmp/cc4iyc4l.s 			page 7


 343               	.LM68:
 344 01a4 1092 0000 		sts qin,__zero_reg__
 345               	.LM69:
 346 01a8 1092 0000 		sts qout,__zero_reg__
 347               	/* epilogue start */
 348               	.LM70:
 349 01ac 0895      		ret
 350               	.LFE11:
 351               		.size	softuart_flush_input_buffer, .-softuart_flush_input_buffer
 352               	.global	softuart_transmit_busy
 353               		.type	softuart_transmit_busy, @function
 354               	softuart_transmit_busy:
 355               	.LFB12:
 356               	.LM71:
 357               	/* prologue: function */
 358               	/* frame size = 0 */
 359               	.LM72:
 360 01ae 8091 0000 		lds r24,flag_tx_busy
 361 01b2 90E0      		ldi r25,lo8(0)
 362 01b4 8130      		cpi r24,lo8(1)
 363 01b6 01F4      		brne .L33
 364 01b8 91E0      		ldi r25,lo8(1)
 365               	.L33:
 366               	.LM73:
 367 01ba 892F      		mov r24,r25
 368               	/* epilogue start */
 369 01bc 0895      		ret
 370               	.LFE12:
 371               		.size	softuart_transmit_busy, .-softuart_transmit_busy
 372               	.global	softuart_putchar
 373               		.type	softuart_putchar, @function
 374               	softuart_putchar:
 375               	.LFB13:
 376               	.LM74:
 377               	.LVL12:
 378               	/* prologue: function */
 379               	/* frame size = 0 */
 380 01be 982F      		mov r25,r24
 381               	.LVL13:
 382               	.L36:
 383               	.LM75:
 384 01c0 8091 0000 		lds r24,flag_tx_busy
 385 01c4 8130      		cpi r24,lo8(1)
 386 01c6 01F0      		breq .L36
 387               	.LM76:
 388 01c8 83E0      		ldi r24,lo8(3)
 389 01ca 8093 0000 		sts timer_tx_ctr,r24
 390               	.LM77:
 391 01ce 8AE0      		ldi r24,lo8(10)
 392 01d0 8093 0000 		sts bits_left_in_tx,r24
 393               	.LM78:
 394 01d4 892F      		mov r24,r25
 395 01d6 90E0      		ldi r25,lo8(0)
 396               	.LVL14:
 397 01d8 880F      		lsl r24
 398 01da 991F      		rol r25
 399               	.LVL15:
GAS LISTING /tmp/cc4iyc4l.s 			page 8


 400 01dc 9260      		ori r25,hi8(512)
 401               	.LVL16:
 402 01de 9093 0000 		sts (internal_tx_buffer)+1,r25
 403 01e2 8093 0000 		sts internal_tx_buffer,r24
 404               	.LM79:
 405 01e6 81E0      		ldi r24,lo8(1)
 406               	.LVL17:
 407 01e8 8093 0000 		sts flag_tx_busy,r24
 408               	/* epilogue start */
 409               	.LM80:
 410 01ec 0895      		ret
 411               	.LFE13:
 412               		.size	softuart_putchar, .-softuart_putchar
 413               	.global	softuart_puts
 414               		.type	softuart_puts, @function
 415               	softuart_puts:
 416               	.LFB14:
 417               	.LM81:
 418               	.LVL18:
 419               	/* prologue: function */
 420               	/* frame size = 0 */
 421 01ee FC01      		movw r30,r24
 422               	.LBB17:
 423               	.LBB18:
 424               	.LM82:
 425 01f0 43E0      		ldi r20,lo8(3)
 426               	.LM83:
 427 01f2 3AE0      		ldi r19,lo8(10)
 428               	.LM84:
 429 01f4 21E0      		ldi r18,lo8(1)
 430 01f6 00C0      		rjmp .L40
 431               	.LVL19:
 432               	.L43:
 433               	.LM85:
 434 01f8 8091 0000 		lds r24,flag_tx_busy
 435 01fc 8130      		cpi r24,lo8(1)
 436 01fe 01F0      		breq .L43
 437               	.LBE18:
 438               	.LBE17:
 439               	.LM86:
 440 0200 3196      		adiw r30,1
 441               	.LBB20:
 442               	.LBB19:
 443               	.LM87:
 444 0202 4093 0000 		sts timer_tx_ctr,r20
 445               	.LM88:
 446 0206 3093 0000 		sts bits_left_in_tx,r19
 447               	.LM89:
 448 020a 892F      		mov r24,r25
 449 020c 90E0      		ldi r25,lo8(0)
 450 020e 880F      		lsl r24
 451 0210 991F      		rol r25
 452 0212 9260      		ori r25,hi8(512)
 453 0214 9093 0000 		sts (internal_tx_buffer)+1,r25
 454 0218 8093 0000 		sts internal_tx_buffer,r24
 455               	.LM90:
 456 021c 2093 0000 		sts flag_tx_busy,r18
GAS LISTING /tmp/cc4iyc4l.s 			page 9


 457               	.LVL20:
 458               	.L40:
 459               	.LBE19:
 460               	.LBE20:
 461               	.LM91:
 462 0220 9081      		ld r25,Z
 463 0222 9923      		tst r25
 464 0224 01F4      		brne .L43
 465               	/* epilogue start */
 466               	.LM92:
 467 0226 0895      		ret
 468               	.LFE14:
 469               		.size	softuart_puts, .-softuart_puts
 470               	.global	softuart_puts_p
 471               		.type	softuart_puts_p, @function
 472               	softuart_puts_p:
 473               	.LFB15:
 474               	.LM93:
 475               	.LVL21:
 476               	/* prologue: function */
 477               	/* frame size = 0 */
 478 0228 9C01      		movw r18,r24
 479               	.LBB21:
 480               	.LBB22:
 481               	.LM94:
 482 022a 63E0      		ldi r22,lo8(3)
 483               	.LM95:
 484 022c 5AE0      		ldi r21,lo8(10)
 485               	.LM96:
 486 022e 41E0      		ldi r20,lo8(1)
 487 0230 00C0      		rjmp .L46
 488               	.LVL22:
 489               	.L49:
 490               	.LM97:
 491 0232 8091 0000 		lds r24,flag_tx_busy
 492 0236 8130      		cpi r24,lo8(1)
 493 0238 01F0      		breq .L49
 494               	.LM98:
 495 023a 6093 0000 		sts timer_tx_ctr,r22
 496               	.LM99:
 497 023e 5093 0000 		sts bits_left_in_tx,r21
 498               	.LM100:
 499 0242 892F      		mov r24,r25
 500 0244 90E0      		ldi r25,lo8(0)
 501               	.LVL23:
 502 0246 880F      		lsl r24
 503 0248 991F      		rol r25
 504               	.LVL24:
 505 024a 9260      		ori r25,hi8(512)
 506               	.LVL25:
 507 024c 9093 0000 		sts (internal_tx_buffer)+1,r25
 508 0250 8093 0000 		sts internal_tx_buffer,r24
 509               	.LM101:
 510 0254 4093 0000 		sts flag_tx_busy,r20
 511               	.LVL26:
 512               	.L46:
 513 0258 F901      		movw r30,r18
GAS LISTING /tmp/cc4iyc4l.s 			page 10


 514               	.LBE22:
 515               	.LBE21:
 516               	.LBB23:
 517               	.LM102:
 518 025a 2F5F      		subi r18,lo8(-(1))
 519 025c 3F4F      		sbci r19,hi8(-(1))
 520               	/* #APP */
 521               	 ;  357 "softuart.c" 1
 522 025e 9491      		lpm r25, Z
 523               		
 524               	 ;  0 "" 2
 525               	.LVL27:
 526               	/* #NOAPP */
 527               	.LBE23:
 528 0260 9923      		tst r25
 529 0262 01F4      		brne .L49
 530               	/* epilogue start */
 531               	.LM103:
 532 0264 0895      		ret
 533               	.LFE15:
 534               		.size	softuart_puts_p, .-softuart_puts_p
 535               		.lcomm internal_rx_buffer.1407,1
 536               		.lcomm bits_left_in_rx.1406,1
 537               		.lcomm timer_rx_ctr.1405,1
 538               		.lcomm rx_mask.1404,1
 539               		.lcomm flag_rx_waiting_for_stop_bit.1403,1
 540               		.lcomm inbuf,32
 541               		.lcomm qin,1
 542               		.lcomm qout,1
 543               		.lcomm flag_rx_off,1
 544               		.lcomm flag_rx_ready,1
 545               		.lcomm flag_tx_busy,1
 546               		.lcomm timer_tx_ctr,1
 547               		.lcomm bits_left_in_tx,1
 548               		.lcomm internal_tx_buffer,2
 549               		.section	.debug_frame,"",@progbits
 550               	.Lframe0:
 551 0000 0C00 0000 		.long	.LECIE0-.LSCIE0
 552               	.LSCIE0:
 553 0004 FFFF FFFF 		.long	0xffffffff
 554 0008 01        		.byte	0x1
 555 0009 00        		.string	""
 556 000a 01        		.uleb128 0x1
 557 000b 7F        		.sleb128 -1
 558 000c 24        		.byte	0x24
 559 000d 0C        		.byte	0xc
 560 000e 20        		.uleb128 0x20
 561 000f 00        		.uleb128 0x0
 562               		.p2align	2
 563               	.LECIE0:
 564               	.LSFDE0:
 565 0010 0C00 0000 		.long	.LEFDE0-.LASFDE0
 566               	.LASFDE0:
 567 0014 0000 0000 		.long	.Lframe0
 568 0018 0000 0000 		.long	.LFB2
 569 001c 2E01 0000 		.long	.LFE2-.LFB2
 570               		.p2align	2
GAS LISTING /tmp/cc4iyc4l.s 			page 11


 571               	.LEFDE0:
 572               	.LSFDE2:
 573 0020 0C00 0000 		.long	.LEFDE2-.LASFDE2
 574               	.LASFDE2:
 575 0024 0000 0000 		.long	.Lframe0
 576 0028 0000 0000 		.long	.LFB5
 577 002c 2C00 0000 		.long	.LFE5-.LFB5
 578               		.p2align	2
 579               	.LEFDE2:
 580               	.LSFDE4:
 581 0030 0C00 0000 		.long	.LEFDE4-.LASFDE4
 582               	.LASFDE4:
 583 0034 0000 0000 		.long	.Lframe0
 584 0038 0000 0000 		.long	.LFB7
 585 003c 0600 0000 		.long	.LFE7-.LFB7
 586               		.p2align	2
 587               	.LEFDE4:
 588               	.LSFDE6:
 589 0040 0C00 0000 		.long	.LEFDE6-.LASFDE6
 590               	.LASFDE6:
 591 0044 0000 0000 		.long	.Lframe0
 592 0048 0000 0000 		.long	.LFB8
 593 004c 0800 0000 		.long	.LFE8-.LFB8
 594               		.p2align	2
 595               	.LEFDE6:
 596               	.LSFDE8:
 597 0050 0C00 0000 		.long	.LEFDE8-.LASFDE8
 598               	.LASFDE8:
 599 0054 0000 0000 		.long	.Lframe0
 600 0058 0000 0000 		.long	.LFB9
 601 005c 2A00 0000 		.long	.LFE9-.LFB9
 602               		.p2align	2
 603               	.LEFDE8:
 604               	.LSFDE10:
 605 0060 0C00 0000 		.long	.LEFDE10-.LASFDE10
 606               	.LASFDE10:
 607 0064 0000 0000 		.long	.Lframe0
 608 0068 0000 0000 		.long	.LFB10
 609 006c 1200 0000 		.long	.LFE10-.LFB10
 610               		.p2align	2
 611               	.LEFDE10:
 612               	.LSFDE12:
 613 0070 0C00 0000 		.long	.LEFDE12-.LASFDE12
 614               	.LASFDE12:
 615 0074 0000 0000 		.long	.Lframe0
 616 0078 0000 0000 		.long	.LFB11
 617 007c 0A00 0000 		.long	.LFE11-.LFB11
 618               		.p2align	2
 619               	.LEFDE12:
 620               	.LSFDE14:
 621 0080 0C00 0000 		.long	.LEFDE14-.LASFDE14
 622               	.LASFDE14:
 623 0084 0000 0000 		.long	.Lframe0
 624 0088 0000 0000 		.long	.LFB12
 625 008c 1000 0000 		.long	.LFE12-.LFB12
 626               		.p2align	2
 627               	.LEFDE14:
GAS LISTING /tmp/cc4iyc4l.s 			page 12


 628               	.LSFDE16:
 629 0090 0C00 0000 		.long	.LEFDE16-.LASFDE16
 630               	.LASFDE16:
 631 0094 0000 0000 		.long	.Lframe0
 632 0098 0000 0000 		.long	.LFB13
 633 009c 3000 0000 		.long	.LFE13-.LFB13
 634               		.p2align	2
 635               	.LEFDE16:
 636               	.LSFDE18:
 637 00a0 0C00 0000 		.long	.LEFDE18-.LASFDE18
 638               	.LASFDE18:
 639 00a4 0000 0000 		.long	.Lframe0
 640 00a8 0000 0000 		.long	.LFB14
 641 00ac 3A00 0000 		.long	.LFE14-.LFB14
 642               		.p2align	2
 643               	.LEFDE18:
 644               	.LSFDE20:
 645 00b0 0C00 0000 		.long	.LEFDE20-.LASFDE20
 646               	.LASFDE20:
 647 00b4 0000 0000 		.long	.Lframe0
 648 00b8 0000 0000 		.long	.LFB15
 649 00bc 3E00 0000 		.long	.LFE15-.LFB15
 650               		.p2align	2
 651               	.LEFDE20:
 652               		.text
 653               	.Letext0:
 654               		.section	.debug_loc,"",@progbits
 655               	.Ldebug_loc0:
 656               	.LLST1:
 657 0000 1E00 0000 		.long	.LVL0-.Ltext0
 658 0004 2A00 0000 		.long	.LVL1-.Ltext0
 659 0008 0100      		.word	0x1
 660 000a 68        		.byte	0x68
 661 000b 6000 0000 		.long	.LVL2-.Ltext0
 662 000f 6800 0000 		.long	.LVL3-.Ltext0
 663 0013 0100      		.word	0x1
 664 0015 68        		.byte	0x68
 665 0016 E200 0000 		.long	.LVL4-.Ltext0
 666 001a EE00 0000 		.long	.LVL5-.Ltext0
 667 001e 0100      		.word	0x1
 668 0020 68        		.byte	0x68
 669 0021 F800 0000 		.long	.LVL6-.Ltext0
 670 0025 FC00 0000 		.long	.LVL7-.Ltext0
 671 0029 0100      		.word	0x1
 672 002b 68        		.byte	0x68
 673 002c 1801 0000 		.long	.LVL8-.Ltext0
 674 0030 2401 0000 		.long	.LVL9-.Ltext0
 675 0034 0100      		.word	0x1
 676 0036 68        		.byte	0x68
 677 0037 0000 0000 		.long	0x0
 678 003b 0000 0000 		.long	0x0
 679               	.LLST10:
 680 003f BE01 0000 		.long	.LVL12-.Ltext0
 681 0043 C001 0000 		.long	.LVL13-.Ltext0
 682 0047 0100      		.word	0x1
 683 0049 68        		.byte	0x68
 684 004a C001 0000 		.long	.LVL13-.Ltext0
GAS LISTING /tmp/cc4iyc4l.s 			page 13


 685 004e D801 0000 		.long	.LVL14-.Ltext0
 686 0052 0100      		.word	0x1
 687 0054 69        		.byte	0x69
 688 0055 D801 0000 		.long	.LVL14-.Ltext0
 689 0059 E801 0000 		.long	.LVL17-.Ltext0
 690 005d 0600      		.word	0x6
 691 005f 68        		.byte	0x68
 692 0060 93        		.byte	0x93
 693 0061 01        		.uleb128 0x1
 694 0062 69        		.byte	0x69
 695 0063 93        		.byte	0x93
 696 0064 01        		.uleb128 0x1
 697 0065 0000 0000 		.long	0x0
 698 0069 0000 0000 		.long	0x0
 699               	.LLST12:
 700 006d EE01 0000 		.long	.LVL18-.Ltext0
 701 0071 F801 0000 		.long	.LVL19-.Ltext0
 702 0075 0600      		.word	0x6
 703 0077 68        		.byte	0x68
 704 0078 93        		.byte	0x93
 705 0079 01        		.uleb128 0x1
 706 007a 69        		.byte	0x69
 707 007b 93        		.byte	0x93
 708 007c 01        		.uleb128 0x1
 709 007d F801 0000 		.long	.LVL19-.Ltext0
 710 0081 2802 0000 		.long	.LFE14-.Ltext0
 711 0085 0600      		.word	0x6
 712 0087 6E        		.byte	0x6e
 713 0088 93        		.byte	0x93
 714 0089 01        		.uleb128 0x1
 715 008a 6F        		.byte	0x6f
 716 008b 93        		.byte	0x93
 717 008c 01        		.uleb128 0x1
 718 008d 0000 0000 		.long	0x0
 719 0091 0000 0000 		.long	0x0
 720               	.LLST14:
 721 0095 2802 0000 		.long	.LVL21-.Ltext0
 722 0099 3202 0000 		.long	.LVL22-.Ltext0
 723 009d 0600      		.word	0x6
 724 009f 68        		.byte	0x68
 725 00a0 93        		.byte	0x93
 726 00a1 01        		.uleb128 0x1
 727 00a2 69        		.byte	0x69
 728 00a3 93        		.byte	0x93
 729 00a4 01        		.uleb128 0x1
 730 00a5 3202 0000 		.long	.LVL22-.Ltext0
 731 00a9 6602 0000 		.long	.LFE15-.Ltext0
 732 00ad 0600      		.word	0x6
 733 00af 62        		.byte	0x62
 734 00b0 93        		.byte	0x93
 735 00b1 01        		.uleb128 0x1
 736 00b2 63        		.byte	0x63
 737 00b3 93        		.byte	0x93
 738 00b4 01        		.uleb128 0x1
 739 00b5 0000 0000 		.long	0x0
 740 00b9 0000 0000 		.long	0x0
 741               	.LLST15:
GAS LISTING /tmp/cc4iyc4l.s 			page 14


 742 00bd 3202 0000 		.long	.LVL22-.Ltext0
 743 00c1 4602 0000 		.long	.LVL23-.Ltext0
 744 00c5 0100      		.word	0x1
 745 00c7 69        		.byte	0x69
 746 00c8 4602 0000 		.long	.LVL23-.Ltext0
 747 00cc 6002 0000 		.long	.LVL27-.Ltext0
 748 00d0 0600      		.word	0x6
 749 00d2 68        		.byte	0x68
 750 00d3 93        		.byte	0x93
 751 00d4 01        		.uleb128 0x1
 752 00d5 69        		.byte	0x69
 753 00d6 93        		.byte	0x93
 754 00d7 01        		.uleb128 0x1
 755 00d8 6002 0000 		.long	.LVL27-.Ltext0
 756 00dc 6602 0000 		.long	.LFE15-.Ltext0
 757 00e0 0100      		.word	0x1
 758 00e2 69        		.byte	0x69
 759 00e3 0000 0000 		.long	0x0
 760 00e7 0000 0000 		.long	0x0
 761               		.section	.debug_info
 762 0000 DC03 0000 		.long	0x3dc
 763 0004 0200      		.word	0x2
 764 0006 0000 0000 		.long	.Ldebug_abbrev0
 765 000a 04        		.byte	0x4
 766 000b 01        		.uleb128 0x1
 767 000c 0000 0000 		.long	.LASF41
 768 0010 01        		.byte	0x1
 769 0011 0000 0000 		.long	.LASF42
 770 0015 0000 0000 		.long	.LASF43
 771 0019 0000 0000 		.long	.Ltext0
 772 001d 0000 0000 		.long	.Letext0
 773 0021 0000 0000 		.long	.Ldebug_line0
 774 0025 02        		.uleb128 0x2
 775 0026 01        		.byte	0x1
 776 0027 06        		.byte	0x6
 777 0028 0000 0000 		.long	.LASF0
 778 002c 03        		.uleb128 0x3
 779 002d 0000 0000 		.long	.LASF2
 780 0031 02        		.byte	0x2
 781 0032 7A        		.byte	0x7a
 782 0033 3700 0000 		.long	0x37
 783 0037 02        		.uleb128 0x2
 784 0038 01        		.byte	0x1
 785 0039 08        		.byte	0x8
 786 003a 0000 0000 		.long	.LASF1
 787 003e 04        		.uleb128 0x4
 788 003f 02        		.byte	0x2
 789 0040 05        		.byte	0x5
 790 0041 696E 7400 		.string	"int"
 791 0045 03        		.uleb128 0x3
 792 0046 0000 0000 		.long	.LASF3
 793 004a 02        		.byte	0x2
 794 004b 7C        		.byte	0x7c
 795 004c 5000 0000 		.long	0x50
 796 0050 02        		.uleb128 0x2
 797 0051 02        		.byte	0x2
 798 0052 07        		.byte	0x7
GAS LISTING /tmp/cc4iyc4l.s 			page 15


 799 0053 0000 0000 		.long	.LASF4
 800 0057 02        		.uleb128 0x2
 801 0058 04        		.byte	0x4
 802 0059 05        		.byte	0x5
 803 005a 0000 0000 		.long	.LASF5
 804 005e 02        		.uleb128 0x2
 805 005f 04        		.byte	0x4
 806 0060 07        		.byte	0x7
 807 0061 0000 0000 		.long	.LASF6
 808 0065 02        		.uleb128 0x2
 809 0066 08        		.byte	0x8
 810 0067 05        		.byte	0x5
 811 0068 0000 0000 		.long	.LASF7
 812 006c 02        		.uleb128 0x2
 813 006d 08        		.byte	0x8
 814 006e 07        		.byte	0x7
 815 006f 0000 0000 		.long	.LASF8
 816 0073 05        		.uleb128 0x5
 817 0074 01        		.byte	0x1
 818 0075 08        		.byte	0x8
 819 0076 06        		.uleb128 0x6
 820 0077 0000 0000 		.long	.LASF9
 821 007b 01        		.byte	0x1
 822 007c F6        		.byte	0xf6
 823 007d 01        		.byte	0x1
 824 007e 01        		.byte	0x1
 825 007f 07        		.uleb128 0x7
 826 0080 0000 0000 		.long	.LASF44
 827 0084 01        		.byte	0x1
 828 0085 FE        		.byte	0xfe
 829 0086 01        		.byte	0x1
 830 0087 01        		.byte	0x1
 831 0088 9800 0000 		.long	0x98
 832 008c 08        		.uleb128 0x8
 833 008d 0000 0000 		.long	.LASF12
 834 0091 01        		.byte	0x1
 835 0092 FF        		.byte	0xff
 836 0093 3700 0000 		.long	0x37
 837 0097 00        		.byte	0x0
 838 0098 09        		.uleb128 0x9
 839 0099 0000 0000 		.long	.LASF10
 840 009d 01        		.byte	0x1
 841 009e 1D01      		.word	0x11d
 842 00a0 01        		.byte	0x1
 843 00a1 01        		.byte	0x1
 844 00a2 0A        		.uleb128 0xa
 845 00a3 01        		.byte	0x1
 846 00a4 0000 0000 		.long	.LASF45
 847 00a8 01        		.byte	0x1
 848 00a9 4D01      		.word	0x14d
 849 00ab 01        		.byte	0x1
 850 00ac 01        		.byte	0x1
 851 00ad BD00 0000 		.long	0xbd
 852 00b1 0B        		.uleb128 0xb
 853 00b2 6368 00   		.string	"ch"
 854 00b5 01        		.byte	0x1
 855 00b6 4C01      		.word	0x14c
GAS LISTING /tmp/cc4iyc4l.s 			page 16


 856 00b8 BD00 0000 		.long	0xbd
 857 00bc 00        		.byte	0x0
 858 00bd 0C        		.uleb128 0xc
 859 00be C200 0000 		.long	0xc2
 860 00c2 02        		.uleb128 0x2
 861 00c3 01        		.byte	0x1
 862 00c4 08        		.byte	0x8
 863 00c5 0000 0000 		.long	.LASF11
 864 00c9 0D        		.uleb128 0xd
 865 00ca 01        		.byte	0x1
 866 00cb 0000 0000 		.long	.LASF20
 867 00cf 01        		.byte	0x1
 868 00d0 AA        		.byte	0xaa
 869 00d1 01        		.byte	0x1
 870 00d2 0000 0000 		.long	.LFB2
 871 00d6 0000 0000 		.long	.LFE2
 872 00da 02        		.byte	0x2
 873 00db 90        		.byte	0x90
 874 00dc 20        		.uleb128 0x20
 875 00dd 5C01 0000 		.long	0x15c
 876 00e1 08        		.uleb128 0x8
 877 00e2 0000 0000 		.long	.LASF13
 878 00e6 01        		.byte	0x1
 879 00e7 B2        		.byte	0xb2
 880 00e8 3700 0000 		.long	0x37
 881 00ec 08        		.uleb128 0x8
 882 00ed 0000 0000 		.long	.LASF14
 883 00f1 01        		.byte	0x1
 884 00f2 B2        		.byte	0xb2
 885 00f3 3700 0000 		.long	0x37
 886 00f7 0E        		.uleb128 0xe
 887 00f8 746D 7000 		.string	"tmp"
 888 00fc 01        		.byte	0x1
 889 00fd B3        		.byte	0xb3
 890 00fe 3700 0000 		.long	0x37
 891 0102 0000 0000 		.long	.LLST1
 892 0106 0F        		.uleb128 0xf
 893 0107 0000 0000 		.long	.LASF15
 894 010b 01        		.byte	0x1
 895 010c AB        		.byte	0xab
 896 010d 3700 0000 		.long	0x37
 897 0111 05        		.byte	0x5
 898 0112 03        		.byte	0x3
 899 0113 0000 0000 		.long	flag_rx_waiting_for_stop_bit.1403
 900 0117 0F        		.uleb128 0xf
 901 0118 0000 0000 		.long	.LASF16
 902 011c 01        		.byte	0x1
 903 011d AC        		.byte	0xac
 904 011e 3700 0000 		.long	0x37
 905 0122 05        		.byte	0x5
 906 0123 03        		.byte	0x3
 907 0124 0000 0000 		.long	rx_mask.1404
 908 0128 0F        		.uleb128 0xf
 909 0129 0000 0000 		.long	.LASF17
 910 012d 01        		.byte	0x1
 911 012e AE        		.byte	0xae
 912 012f 3700 0000 		.long	0x37
GAS LISTING /tmp/cc4iyc4l.s 			page 17


 913 0133 05        		.byte	0x5
 914 0134 03        		.byte	0x3
 915 0135 0000 0000 		.long	timer_rx_ctr.1405
 916 0139 0F        		.uleb128 0xf
 917 013a 0000 0000 		.long	.LASF18
 918 013e 01        		.byte	0x1
 919 013f AF        		.byte	0xaf
 920 0140 3700 0000 		.long	0x37
 921 0144 05        		.byte	0x5
 922 0145 03        		.byte	0x3
 923 0146 0000 0000 		.long	bits_left_in_rx.1406
 924 014a 0F        		.uleb128 0xf
 925 014b 0000 0000 		.long	.LASF19
 926 014f 01        		.byte	0x1
 927 0150 B0        		.byte	0xb0
 928 0151 3700 0000 		.long	0x37
 929 0155 05        		.byte	0x5
 930 0156 03        		.byte	0x3
 931 0157 0000 0000 		.long	internal_rx_buffer.1407
 932 015b 00        		.byte	0x0
 933 015c 10        		.uleb128 0x10
 934 015d 01        		.byte	0x1
 935 015e 0000 0000 		.long	.LASF21
 936 0162 01        		.byte	0x1
 937 0163 1101      		.word	0x111
 938 0165 01        		.byte	0x1
 939 0166 0000 0000 		.long	.LFB5
 940 016a 0000 0000 		.long	.LFE5
 941 016e 02        		.byte	0x2
 942 016f 90        		.byte	0x90
 943 0170 20        		.uleb128 0x20
 944 0171 A801 0000 		.long	0x1a8
 945 0175 11        		.uleb128 0x11
 946 0176 7600 0000 		.long	0x76
 947 017a 0000 0000 		.long	.LBB13
 948 017e 0000 0000 		.long	.LBE13
 949 0182 01        		.byte	0x1
 950 0183 1801      		.word	0x118
 951 0185 12        		.uleb128 0x12
 952 0186 7F00 0000 		.long	0x7f
 953 018a 0000 0000 		.long	.LBB15
 954 018e 0000 0000 		.long	.LBE15
 955 0192 01        		.byte	0x1
 956 0193 1901      		.word	0x119
 957 0195 13        		.uleb128 0x13
 958 0196 0000 0000 		.long	.LBB16
 959 019a 0000 0000 		.long	.LBE16
 960 019e 14        		.uleb128 0x14
 961 019f 8C00 0000 		.long	0x8c
 962 01a3 01        		.byte	0x1
 963 01a4 69        		.byte	0x69
 964 01a5 00        		.byte	0x0
 965 01a6 00        		.byte	0x0
 966 01a7 00        		.byte	0x0
 967 01a8 15        		.uleb128 0x15
 968 01a9 01        		.byte	0x1
 969 01aa 0000 0000 		.long	.LASF22
GAS LISTING /tmp/cc4iyc4l.s 			page 18


 970 01ae 01        		.byte	0x1
 971 01af 2401      		.word	0x124
 972 01b1 01        		.byte	0x1
 973 01b2 0000 0000 		.long	.LFB7
 974 01b6 0000 0000 		.long	.LFE7
 975 01ba 02        		.byte	0x2
 976 01bb 90        		.byte	0x90
 977 01bc 20        		.uleb128 0x20
 978 01bd 15        		.uleb128 0x15
 979 01be 01        		.byte	0x1
 980 01bf 0000 0000 		.long	.LASF23
 981 01c3 01        		.byte	0x1
 982 01c4 2901      		.word	0x129
 983 01c6 01        		.byte	0x1
 984 01c7 0000 0000 		.long	.LFB8
 985 01cb 0000 0000 		.long	.LFE8
 986 01cf 02        		.byte	0x2
 987 01d0 90        		.byte	0x90
 988 01d1 20        		.uleb128 0x20
 989 01d2 16        		.uleb128 0x16
 990 01d3 01        		.byte	0x1
 991 01d4 0000 0000 		.long	.LASF46
 992 01d8 01        		.byte	0x1
 993 01d9 2E01      		.word	0x12e
 994 01db 01        		.byte	0x1
 995 01dc C200 0000 		.long	0xc2
 996 01e0 0000 0000 		.long	.LFB9
 997 01e4 0000 0000 		.long	.LFE9
 998 01e8 02        		.byte	0x2
 999 01e9 90        		.byte	0x90
 1000 01ea 20        		.uleb128 0x20
 1001 01eb FD01 0000 		.long	0x1fd
 1002 01ef 17        		.uleb128 0x17
 1003 01f0 6368 00   		.string	"ch"
 1004 01f3 01        		.byte	0x1
 1005 01f4 2F01      		.word	0x12f
 1006 01f6 C200 0000 		.long	0xc2
 1007 01fa 01        		.byte	0x1
 1008 01fb 6E        		.byte	0x6e
 1009 01fc 00        		.byte	0x0
 1010 01fd 18        		.uleb128 0x18
 1011 01fe 01        		.byte	0x1
 1012 01ff 0000 0000 		.long	.LASF25
 1013 0203 01        		.byte	0x1
 1014 0204 3D01      		.word	0x13d
 1015 0206 01        		.byte	0x1
 1016 0207 3700 0000 		.long	0x37
 1017 020b 0000 0000 		.long	.LFB10
 1018 020f 0000 0000 		.long	.LFE10
 1019 0213 02        		.byte	0x2
 1020 0214 90        		.byte	0x90
 1021 0215 20        		.uleb128 0x20
 1022 0216 15        		.uleb128 0x15
 1023 0217 01        		.byte	0x1
 1024 0218 0000 0000 		.long	.LASF24
 1025 021c 01        		.byte	0x1
 1026 021d 4201      		.word	0x142
GAS LISTING /tmp/cc4iyc4l.s 			page 19


 1027 021f 01        		.byte	0x1
 1028 0220 0000 0000 		.long	.LFB11
 1029 0224 0000 0000 		.long	.LFE11
 1030 0228 02        		.byte	0x2
 1031 0229 90        		.byte	0x90
 1032 022a 20        		.uleb128 0x20
 1033 022b 18        		.uleb128 0x18
 1034 022c 01        		.byte	0x1
 1035 022d 0000 0000 		.long	.LASF26
 1036 0231 01        		.byte	0x1
 1037 0232 4801      		.word	0x148
 1038 0234 01        		.byte	0x1
 1039 0235 3700 0000 		.long	0x37
 1040 0239 0000 0000 		.long	.LFB12
 1041 023d 0000 0000 		.long	.LFE12
 1042 0241 02        		.byte	0x2
 1043 0242 90        		.byte	0x90
 1044 0243 20        		.uleb128 0x20
 1045 0244 19        		.uleb128 0x19
 1046 0245 A200 0000 		.long	0xa2
 1047 0249 0000 0000 		.long	.LFB13
 1048 024d 0000 0000 		.long	.LFE13
 1049 0251 02        		.byte	0x2
 1050 0252 90        		.byte	0x90
 1051 0253 20        		.uleb128 0x20
 1052 0254 6202 0000 		.long	0x262
 1053 0258 1A        		.uleb128 0x1a
 1054 0259 B100 0000 		.long	0xb1
 1055 025d 0000 0000 		.long	.LLST10
 1056 0261 00        		.byte	0x0
 1057 0262 10        		.uleb128 0x10
 1058 0263 01        		.byte	0x1
 1059 0264 0000 0000 		.long	.LASF27
 1060 0268 01        		.byte	0x1
 1061 0269 5B01      		.word	0x15b
 1062 026b 01        		.byte	0x1
 1063 026c 0000 0000 		.long	.LFB14
 1064 0270 0000 0000 		.long	.LFE14
 1065 0274 02        		.byte	0x2
 1066 0275 90        		.byte	0x90
 1067 0276 20        		.uleb128 0x20
 1068 0277 9C02 0000 		.long	0x29c
 1069 027b 1B        		.uleb128 0x1b
 1070 027c 7300      		.string	"s"
 1071 027e 01        		.byte	0x1
 1072 027f 5A01      		.word	0x15a
 1073 0281 9C02 0000 		.long	0x29c
 1074 0285 0000 0000 		.long	.LLST12
 1075 0289 1C        		.uleb128 0x1c
 1076 028a A200 0000 		.long	0xa2
 1077 028e 0000 0000 		.long	.Ldebug_ranges0+0x0
 1078 0292 01        		.byte	0x1
 1079 0293 5D01      		.word	0x15d
 1080 0295 1D        		.uleb128 0x1d
 1081 0296 5802 0000 		.long	0x258
 1082 029a 00        		.byte	0x0
 1083 029b 00        		.byte	0x0
GAS LISTING /tmp/cc4iyc4l.s 			page 20


 1084 029c 1E        		.uleb128 0x1e
 1085 029d 02        		.byte	0x2
 1086 029e BD00 0000 		.long	0xbd
 1087 02a2 10        		.uleb128 0x10
 1088 02a3 01        		.byte	0x1
 1089 02a4 0000 0000 		.long	.LASF28
 1090 02a8 01        		.byte	0x1
 1091 02a9 6201      		.word	0x162
 1092 02ab 01        		.byte	0x1
 1093 02ac 0000 0000 		.long	.LFB15
 1094 02b0 0000 0000 		.long	.LFE15
 1095 02b4 02        		.byte	0x2
 1096 02b5 90        		.byte	0x90
 1097 02b6 20        		.uleb128 0x20
 1098 02b7 1D03 0000 		.long	0x31d
 1099 02bb 1F        		.uleb128 0x1f
 1100 02bc 0000 0000 		.long	.LASF29
 1101 02c0 01        		.byte	0x1
 1102 02c1 6101      		.word	0x161
 1103 02c3 9C02 0000 		.long	0x29c
 1104 02c7 0000 0000 		.long	.LLST14
 1105 02cb 20        		.uleb128 0x20
 1106 02cc 6300      		.string	"c"
 1107 02ce 01        		.byte	0x1
 1108 02cf 6301      		.word	0x163
 1109 02d1 C200 0000 		.long	0xc2
 1110 02d5 21        		.uleb128 0x21
 1111 02d6 A200 0000 		.long	0xa2
 1112 02da 0000 0000 		.long	.LBB21
 1113 02de 0000 0000 		.long	.LBE21
 1114 02e2 01        		.byte	0x1
 1115 02e3 6601      		.word	0x166
 1116 02e5 EF02 0000 		.long	0x2ef
 1117 02e9 1D        		.uleb128 0x1d
 1118 02ea 5802 0000 		.long	0x258
 1119 02ee 00        		.byte	0x0
 1120 02ef 13        		.uleb128 0x13
 1121 02f0 0000 0000 		.long	.LBB23
 1122 02f4 0000 0000 		.long	.LBE23
 1123 02f8 22        		.uleb128 0x22
 1124 02f9 0000 0000 		.long	.LASF30
 1125 02fd 01        		.byte	0x1
 1126 02fe 6501      		.word	0x165
 1127 0300 4500 0000 		.long	0x45
 1128 0304 06        		.byte	0x6
 1129 0305 6E        		.byte	0x6e
 1130 0306 93        		.byte	0x93
 1131 0307 01        		.uleb128 0x1
 1132 0308 6F        		.byte	0x6f
 1133 0309 93        		.byte	0x93
 1134 030a 01        		.uleb128 0x1
 1135 030b 23        		.uleb128 0x23
 1136 030c 0000 0000 		.long	.LASF31
 1137 0310 01        		.byte	0x1
 1138 0311 6501      		.word	0x165
 1139 0313 2C00 0000 		.long	0x2c
 1140 0317 0000 0000 		.long	.LLST15
GAS LISTING /tmp/cc4iyc4l.s 			page 21


 1141 031b 00        		.byte	0x0
 1142 031c 00        		.byte	0x0
 1143 031d 24        		.uleb128 0x24
 1144 031e C200 0000 		.long	0xc2
 1145 0322 2D03 0000 		.long	0x32d
 1146 0326 25        		.uleb128 0x25
 1147 0327 2D03 0000 		.long	0x32d
 1148 032b 1F        		.byte	0x1f
 1149 032c 00        		.byte	0x0
 1150 032d 05        		.uleb128 0x5
 1151 032e 02        		.byte	0x2
 1152 032f 07        		.byte	0x7
 1153 0330 0F        		.uleb128 0xf
 1154 0331 0000 0000 		.long	.LASF32
 1155 0335 01        		.byte	0x1
 1156 0336 98        		.byte	0x98
 1157 0337 4103 0000 		.long	0x341
 1158 033b 05        		.byte	0x5
 1159 033c 03        		.byte	0x3
 1160 033d 0000 0000 		.long	inbuf
 1161 0341 26        		.uleb128 0x26
 1162 0342 1D03 0000 		.long	0x31d
 1163 0346 27        		.uleb128 0x27
 1164 0347 7169 6E00 		.string	"qin"
 1165 034b 01        		.byte	0x1
 1166 034c 99        		.byte	0x99
 1167 034d 5703 0000 		.long	0x357
 1168 0351 05        		.byte	0x5
 1169 0352 03        		.byte	0x3
 1170 0353 0000 0000 		.long	qin
 1171 0357 26        		.uleb128 0x26
 1172 0358 3700 0000 		.long	0x37
 1173 035c 0F        		.uleb128 0xf
 1174 035d 0000 0000 		.long	.LASF33
 1175 0361 01        		.byte	0x1
 1176 0362 9A        		.byte	0x9a
 1177 0363 3700 0000 		.long	0x37
 1178 0367 05        		.byte	0x5
 1179 0368 03        		.byte	0x3
 1180 0369 0000 0000 		.long	qout
 1181 036d 0F        		.uleb128 0xf
 1182 036e 0000 0000 		.long	.LASF34
 1183 0372 01        		.byte	0x1
 1184 0373 9B        		.byte	0x9b
 1185 0374 5703 0000 		.long	0x357
 1186 0378 05        		.byte	0x5
 1187 0379 03        		.byte	0x3
 1188 037a 0000 0000 		.long	flag_rx_off
 1189 037e 0F        		.uleb128 0xf
 1190 037f 0000 0000 		.long	.LASF35
 1191 0383 01        		.byte	0x1
 1192 0384 9C        		.byte	0x9c
 1193 0385 5703 0000 		.long	0x357
 1194 0389 05        		.byte	0x5
 1195 038a 03        		.byte	0x3
 1196 038b 0000 0000 		.long	flag_rx_ready
 1197 038f 0F        		.uleb128 0xf
GAS LISTING /tmp/cc4iyc4l.s 			page 22


 1198 0390 0000 0000 		.long	.LASF36
 1199 0394 01        		.byte	0x1
 1200 0395 A0        		.byte	0xa0
 1201 0396 5703 0000 		.long	0x357
 1202 039a 05        		.byte	0x5
 1203 039b 03        		.byte	0x3
 1204 039c 0000 0000 		.long	flag_tx_busy
 1205 03a0 0F        		.uleb128 0xf
 1206 03a1 0000 0000 		.long	.LASF37
 1207 03a5 01        		.byte	0x1
 1208 03a6 A1        		.byte	0xa1
 1209 03a7 5703 0000 		.long	0x357
 1210 03ab 05        		.byte	0x5
 1211 03ac 03        		.byte	0x3
 1212 03ad 0000 0000 		.long	timer_tx_ctr
 1213 03b1 0F        		.uleb128 0xf
 1214 03b2 0000 0000 		.long	.LASF38
 1215 03b6 01        		.byte	0x1
 1216 03b7 A2        		.byte	0xa2
 1217 03b8 5703 0000 		.long	0x357
 1218 03bc 05        		.byte	0x5
 1219 03bd 03        		.byte	0x3
 1220 03be 0000 0000 		.long	bits_left_in_tx
 1221 03c2 0F        		.uleb128 0xf
 1222 03c3 0000 0000 		.long	.LASF39
 1223 03c7 01        		.byte	0x1
 1224 03c8 A3        		.byte	0xa3
 1225 03c9 D303 0000 		.long	0x3d3
 1226 03cd 05        		.byte	0x5
 1227 03ce 03        		.byte	0x3
 1228 03cf 0000 0000 		.long	internal_tx_buffer
 1229 03d3 26        		.uleb128 0x26
 1230 03d4 D803 0000 		.long	0x3d8
 1231 03d8 02        		.uleb128 0x2
 1232 03d9 02        		.byte	0x2
 1233 03da 07        		.byte	0x7
 1234 03db 0000 0000 		.long	.LASF40
 1235 03df 00        		.byte	0x0
 1236               		.section	.debug_abbrev
 1237 0000 01        		.uleb128 0x1
 1238 0001 11        		.uleb128 0x11
 1239 0002 01        		.byte	0x1
 1240 0003 25        		.uleb128 0x25
 1241 0004 0E        		.uleb128 0xe
 1242 0005 13        		.uleb128 0x13
 1243 0006 0B        		.uleb128 0xb
 1244 0007 03        		.uleb128 0x3
 1245 0008 0E        		.uleb128 0xe
 1246 0009 1B        		.uleb128 0x1b
 1247 000a 0E        		.uleb128 0xe
 1248 000b 11        		.uleb128 0x11
 1249 000c 01        		.uleb128 0x1
 1250 000d 12        		.uleb128 0x12
 1251 000e 01        		.uleb128 0x1
 1252 000f 10        		.uleb128 0x10
 1253 0010 06        		.uleb128 0x6
 1254 0011 00        		.byte	0x0
GAS LISTING /tmp/cc4iyc4l.s 			page 23


 1255 0012 00        		.byte	0x0
 1256 0013 02        		.uleb128 0x2
 1257 0014 24        		.uleb128 0x24
 1258 0015 00        		.byte	0x0
 1259 0016 0B        		.uleb128 0xb
 1260 0017 0B        		.uleb128 0xb
 1261 0018 3E        		.uleb128 0x3e
 1262 0019 0B        		.uleb128 0xb
 1263 001a 03        		.uleb128 0x3
 1264 001b 0E        		.uleb128 0xe
 1265 001c 00        		.byte	0x0
 1266 001d 00        		.byte	0x0
 1267 001e 03        		.uleb128 0x3
 1268 001f 16        		.uleb128 0x16
 1269 0020 00        		.byte	0x0
 1270 0021 03        		.uleb128 0x3
 1271 0022 0E        		.uleb128 0xe
 1272 0023 3A        		.uleb128 0x3a
 1273 0024 0B        		.uleb128 0xb
 1274 0025 3B        		.uleb128 0x3b
 1275 0026 0B        		.uleb128 0xb
 1276 0027 49        		.uleb128 0x49
 1277 0028 13        		.uleb128 0x13
 1278 0029 00        		.byte	0x0
 1279 002a 00        		.byte	0x0
 1280 002b 04        		.uleb128 0x4
 1281 002c 24        		.uleb128 0x24
 1282 002d 00        		.byte	0x0
 1283 002e 0B        		.uleb128 0xb
 1284 002f 0B        		.uleb128 0xb
 1285 0030 3E        		.uleb128 0x3e
 1286 0031 0B        		.uleb128 0xb
 1287 0032 03        		.uleb128 0x3
 1288 0033 08        		.uleb128 0x8
 1289 0034 00        		.byte	0x0
 1290 0035 00        		.byte	0x0
 1291 0036 05        		.uleb128 0x5
 1292 0037 24        		.uleb128 0x24
 1293 0038 00        		.byte	0x0
 1294 0039 0B        		.uleb128 0xb
 1295 003a 0B        		.uleb128 0xb
 1296 003b 3E        		.uleb128 0x3e
 1297 003c 0B        		.uleb128 0xb
 1298 003d 00        		.byte	0x0
 1299 003e 00        		.byte	0x0
 1300 003f 06        		.uleb128 0x6
 1301 0040 2E        		.uleb128 0x2e
 1302 0041 00        		.byte	0x0
 1303 0042 03        		.uleb128 0x3
 1304 0043 0E        		.uleb128 0xe
 1305 0044 3A        		.uleb128 0x3a
 1306 0045 0B        		.uleb128 0xb
 1307 0046 3B        		.uleb128 0x3b
 1308 0047 0B        		.uleb128 0xb
 1309 0048 27        		.uleb128 0x27
 1310 0049 0C        		.uleb128 0xc
 1311 004a 20        		.uleb128 0x20
GAS LISTING /tmp/cc4iyc4l.s 			page 24


 1312 004b 0B        		.uleb128 0xb
 1313 004c 00        		.byte	0x0
 1314 004d 00        		.byte	0x0
 1315 004e 07        		.uleb128 0x7
 1316 004f 2E        		.uleb128 0x2e
 1317 0050 01        		.byte	0x1
 1318 0051 03        		.uleb128 0x3
 1319 0052 0E        		.uleb128 0xe
 1320 0053 3A        		.uleb128 0x3a
 1321 0054 0B        		.uleb128 0xb
 1322 0055 3B        		.uleb128 0x3b
 1323 0056 0B        		.uleb128 0xb
 1324 0057 27        		.uleb128 0x27
 1325 0058 0C        		.uleb128 0xc
 1326 0059 20        		.uleb128 0x20
 1327 005a 0B        		.uleb128 0xb
 1328 005b 01        		.uleb128 0x1
 1329 005c 13        		.uleb128 0x13
 1330 005d 00        		.byte	0x0
 1331 005e 00        		.byte	0x0
 1332 005f 08        		.uleb128 0x8
 1333 0060 34        		.uleb128 0x34
 1334 0061 00        		.byte	0x0
 1335 0062 03        		.uleb128 0x3
 1336 0063 0E        		.uleb128 0xe
 1337 0064 3A        		.uleb128 0x3a
 1338 0065 0B        		.uleb128 0xb
 1339 0066 3B        		.uleb128 0x3b
 1340 0067 0B        		.uleb128 0xb
 1341 0068 49        		.uleb128 0x49
 1342 0069 13        		.uleb128 0x13
 1343 006a 00        		.byte	0x0
 1344 006b 00        		.byte	0x0
 1345 006c 09        		.uleb128 0x9
 1346 006d 2E        		.uleb128 0x2e
 1347 006e 00        		.byte	0x0
 1348 006f 03        		.uleb128 0x3
 1349 0070 0E        		.uleb128 0xe
 1350 0071 3A        		.uleb128 0x3a
 1351 0072 0B        		.uleb128 0xb
 1352 0073 3B        		.uleb128 0x3b
 1353 0074 05        		.uleb128 0x5
 1354 0075 27        		.uleb128 0x27
 1355 0076 0C        		.uleb128 0xc
 1356 0077 20        		.uleb128 0x20
 1357 0078 0B        		.uleb128 0xb
 1358 0079 00        		.byte	0x0
 1359 007a 00        		.byte	0x0
 1360 007b 0A        		.uleb128 0xa
 1361 007c 2E        		.uleb128 0x2e
 1362 007d 01        		.byte	0x1
 1363 007e 3F        		.uleb128 0x3f
 1364 007f 0C        		.uleb128 0xc
 1365 0080 03        		.uleb128 0x3
 1366 0081 0E        		.uleb128 0xe
 1367 0082 3A        		.uleb128 0x3a
 1368 0083 0B        		.uleb128 0xb
GAS LISTING /tmp/cc4iyc4l.s 			page 25


 1369 0084 3B        		.uleb128 0x3b
 1370 0085 05        		.uleb128 0x5
 1371 0086 27        		.uleb128 0x27
 1372 0087 0C        		.uleb128 0xc
 1373 0088 20        		.uleb128 0x20
 1374 0089 0B        		.uleb128 0xb
 1375 008a 01        		.uleb128 0x1
 1376 008b 13        		.uleb128 0x13
 1377 008c 00        		.byte	0x0
 1378 008d 00        		.byte	0x0
 1379 008e 0B        		.uleb128 0xb
 1380 008f 05        		.uleb128 0x5
 1381 0090 00        		.byte	0x0
 1382 0091 03        		.uleb128 0x3
 1383 0092 08        		.uleb128 0x8
 1384 0093 3A        		.uleb128 0x3a
 1385 0094 0B        		.uleb128 0xb
 1386 0095 3B        		.uleb128 0x3b
 1387 0096 05        		.uleb128 0x5
 1388 0097 49        		.uleb128 0x49
 1389 0098 13        		.uleb128 0x13
 1390 0099 00        		.byte	0x0
 1391 009a 00        		.byte	0x0
 1392 009b 0C        		.uleb128 0xc
 1393 009c 26        		.uleb128 0x26
 1394 009d 00        		.byte	0x0
 1395 009e 49        		.uleb128 0x49
 1396 009f 13        		.uleb128 0x13
 1397 00a0 00        		.byte	0x0
 1398 00a1 00        		.byte	0x0
 1399 00a2 0D        		.uleb128 0xd
 1400 00a3 2E        		.uleb128 0x2e
 1401 00a4 01        		.byte	0x1
 1402 00a5 3F        		.uleb128 0x3f
 1403 00a6 0C        		.uleb128 0xc
 1404 00a7 03        		.uleb128 0x3
 1405 00a8 0E        		.uleb128 0xe
 1406 00a9 3A        		.uleb128 0x3a
 1407 00aa 0B        		.uleb128 0xb
 1408 00ab 3B        		.uleb128 0x3b
 1409 00ac 0B        		.uleb128 0xb
 1410 00ad 27        		.uleb128 0x27
 1411 00ae 0C        		.uleb128 0xc
 1412 00af 11        		.uleb128 0x11
 1413 00b0 01        		.uleb128 0x1
 1414 00b1 12        		.uleb128 0x12
 1415 00b2 01        		.uleb128 0x1
 1416 00b3 40        		.uleb128 0x40
 1417 00b4 0A        		.uleb128 0xa
 1418 00b5 01        		.uleb128 0x1
 1419 00b6 13        		.uleb128 0x13
 1420 00b7 00        		.byte	0x0
 1421 00b8 00        		.byte	0x0
 1422 00b9 0E        		.uleb128 0xe
 1423 00ba 34        		.uleb128 0x34
 1424 00bb 00        		.byte	0x0
 1425 00bc 03        		.uleb128 0x3
GAS LISTING /tmp/cc4iyc4l.s 			page 26


 1426 00bd 08        		.uleb128 0x8
 1427 00be 3A        		.uleb128 0x3a
 1428 00bf 0B        		.uleb128 0xb
 1429 00c0 3B        		.uleb128 0x3b
 1430 00c1 0B        		.uleb128 0xb
 1431 00c2 49        		.uleb128 0x49
 1432 00c3 13        		.uleb128 0x13
 1433 00c4 02        		.uleb128 0x2
 1434 00c5 06        		.uleb128 0x6
 1435 00c6 00        		.byte	0x0
 1436 00c7 00        		.byte	0x0
 1437 00c8 0F        		.uleb128 0xf
 1438 00c9 34        		.uleb128 0x34
 1439 00ca 00        		.byte	0x0
 1440 00cb 03        		.uleb128 0x3
 1441 00cc 0E        		.uleb128 0xe
 1442 00cd 3A        		.uleb128 0x3a
 1443 00ce 0B        		.uleb128 0xb
 1444 00cf 3B        		.uleb128 0x3b
 1445 00d0 0B        		.uleb128 0xb
 1446 00d1 49        		.uleb128 0x49
 1447 00d2 13        		.uleb128 0x13
 1448 00d3 02        		.uleb128 0x2
 1449 00d4 0A        		.uleb128 0xa
 1450 00d5 00        		.byte	0x0
 1451 00d6 00        		.byte	0x0
 1452 00d7 10        		.uleb128 0x10
 1453 00d8 2E        		.uleb128 0x2e
 1454 00d9 01        		.byte	0x1
 1455 00da 3F        		.uleb128 0x3f
 1456 00db 0C        		.uleb128 0xc
 1457 00dc 03        		.uleb128 0x3
 1458 00dd 0E        		.uleb128 0xe
 1459 00de 3A        		.uleb128 0x3a
 1460 00df 0B        		.uleb128 0xb
 1461 00e0 3B        		.uleb128 0x3b
 1462 00e1 05        		.uleb128 0x5
 1463 00e2 27        		.uleb128 0x27
 1464 00e3 0C        		.uleb128 0xc
 1465 00e4 11        		.uleb128 0x11
 1466 00e5 01        		.uleb128 0x1
 1467 00e6 12        		.uleb128 0x12
 1468 00e7 01        		.uleb128 0x1
 1469 00e8 40        		.uleb128 0x40
 1470 00e9 0A        		.uleb128 0xa
 1471 00ea 01        		.uleb128 0x1
 1472 00eb 13        		.uleb128 0x13
 1473 00ec 00        		.byte	0x0
 1474 00ed 00        		.byte	0x0
 1475 00ee 11        		.uleb128 0x11
 1476 00ef 1D        		.uleb128 0x1d
 1477 00f0 00        		.byte	0x0
 1478 00f1 31        		.uleb128 0x31
 1479 00f2 13        		.uleb128 0x13
 1480 00f3 11        		.uleb128 0x11
 1481 00f4 01        		.uleb128 0x1
 1482 00f5 12        		.uleb128 0x12
GAS LISTING /tmp/cc4iyc4l.s 			page 27


 1483 00f6 01        		.uleb128 0x1
 1484 00f7 58        		.uleb128 0x58
 1485 00f8 0B        		.uleb128 0xb
 1486 00f9 59        		.uleb128 0x59
 1487 00fa 05        		.uleb128 0x5
 1488 00fb 00        		.byte	0x0
 1489 00fc 00        		.byte	0x0
 1490 00fd 12        		.uleb128 0x12
 1491 00fe 1D        		.uleb128 0x1d
 1492 00ff 01        		.byte	0x1
 1493 0100 31        		.uleb128 0x31
 1494 0101 13        		.uleb128 0x13
 1495 0102 11        		.uleb128 0x11
 1496 0103 01        		.uleb128 0x1
 1497 0104 12        		.uleb128 0x12
 1498 0105 01        		.uleb128 0x1
 1499 0106 58        		.uleb128 0x58
 1500 0107 0B        		.uleb128 0xb
 1501 0108 59        		.uleb128 0x59
 1502 0109 05        		.uleb128 0x5
 1503 010a 00        		.byte	0x0
 1504 010b 00        		.byte	0x0
 1505 010c 13        		.uleb128 0x13
 1506 010d 0B        		.uleb128 0xb
 1507 010e 01        		.byte	0x1
 1508 010f 11        		.uleb128 0x11
 1509 0110 01        		.uleb128 0x1
 1510 0111 12        		.uleb128 0x12
 1511 0112 01        		.uleb128 0x1
 1512 0113 00        		.byte	0x0
 1513 0114 00        		.byte	0x0
 1514 0115 14        		.uleb128 0x14
 1515 0116 34        		.uleb128 0x34
 1516 0117 00        		.byte	0x0
 1517 0118 31        		.uleb128 0x31
 1518 0119 13        		.uleb128 0x13
 1519 011a 02        		.uleb128 0x2
 1520 011b 0A        		.uleb128 0xa
 1521 011c 00        		.byte	0x0
 1522 011d 00        		.byte	0x0
 1523 011e 15        		.uleb128 0x15
 1524 011f 2E        		.uleb128 0x2e
 1525 0120 00        		.byte	0x0
 1526 0121 3F        		.uleb128 0x3f
 1527 0122 0C        		.uleb128 0xc
 1528 0123 03        		.uleb128 0x3
 1529 0124 0E        		.uleb128 0xe
 1530 0125 3A        		.uleb128 0x3a
 1531 0126 0B        		.uleb128 0xb
 1532 0127 3B        		.uleb128 0x3b
 1533 0128 05        		.uleb128 0x5
 1534 0129 27        		.uleb128 0x27
 1535 012a 0C        		.uleb128 0xc
 1536 012b 11        		.uleb128 0x11
 1537 012c 01        		.uleb128 0x1
 1538 012d 12        		.uleb128 0x12
 1539 012e 01        		.uleb128 0x1
GAS LISTING /tmp/cc4iyc4l.s 			page 28


 1540 012f 40        		.uleb128 0x40
 1541 0130 0A        		.uleb128 0xa
 1542 0131 00        		.byte	0x0
 1543 0132 00        		.byte	0x0
 1544 0133 16        		.uleb128 0x16
 1545 0134 2E        		.uleb128 0x2e
 1546 0135 01        		.byte	0x1
 1547 0136 3F        		.uleb128 0x3f
 1548 0137 0C        		.uleb128 0xc
 1549 0138 03        		.uleb128 0x3
 1550 0139 0E        		.uleb128 0xe
 1551 013a 3A        		.uleb128 0x3a
 1552 013b 0B        		.uleb128 0xb
 1553 013c 3B        		.uleb128 0x3b
 1554 013d 05        		.uleb128 0x5
 1555 013e 27        		.uleb128 0x27
 1556 013f 0C        		.uleb128 0xc
 1557 0140 49        		.uleb128 0x49
 1558 0141 13        		.uleb128 0x13
 1559 0142 11        		.uleb128 0x11
 1560 0143 01        		.uleb128 0x1
 1561 0144 12        		.uleb128 0x12
 1562 0145 01        		.uleb128 0x1
 1563 0146 40        		.uleb128 0x40
 1564 0147 0A        		.uleb128 0xa
 1565 0148 01        		.uleb128 0x1
 1566 0149 13        		.uleb128 0x13
 1567 014a 00        		.byte	0x0
 1568 014b 00        		.byte	0x0
 1569 014c 17        		.uleb128 0x17
 1570 014d 34        		.uleb128 0x34
 1571 014e 00        		.byte	0x0
 1572 014f 03        		.uleb128 0x3
 1573 0150 08        		.uleb128 0x8
 1574 0151 3A        		.uleb128 0x3a
 1575 0152 0B        		.uleb128 0xb
 1576 0153 3B        		.uleb128 0x3b
 1577 0154 05        		.uleb128 0x5
 1578 0155 49        		.uleb128 0x49
 1579 0156 13        		.uleb128 0x13
 1580 0157 02        		.uleb128 0x2
 1581 0158 0A        		.uleb128 0xa
 1582 0159 00        		.byte	0x0
 1583 015a 00        		.byte	0x0
 1584 015b 18        		.uleb128 0x18
 1585 015c 2E        		.uleb128 0x2e
 1586 015d 00        		.byte	0x0
 1587 015e 3F        		.uleb128 0x3f
 1588 015f 0C        		.uleb128 0xc
 1589 0160 03        		.uleb128 0x3
 1590 0161 0E        		.uleb128 0xe
 1591 0162 3A        		.uleb128 0x3a
 1592 0163 0B        		.uleb128 0xb
 1593 0164 3B        		.uleb128 0x3b
 1594 0165 05        		.uleb128 0x5
 1595 0166 27        		.uleb128 0x27
 1596 0167 0C        		.uleb128 0xc
GAS LISTING /tmp/cc4iyc4l.s 			page 29


 1597 0168 49        		.uleb128 0x49
 1598 0169 13        		.uleb128 0x13
 1599 016a 11        		.uleb128 0x11
 1600 016b 01        		.uleb128 0x1
 1601 016c 12        		.uleb128 0x12
 1602 016d 01        		.uleb128 0x1
 1603 016e 40        		.uleb128 0x40
 1604 016f 0A        		.uleb128 0xa
 1605 0170 00        		.byte	0x0
 1606 0171 00        		.byte	0x0
 1607 0172 19        		.uleb128 0x19
 1608 0173 2E        		.uleb128 0x2e
 1609 0174 01        		.byte	0x1
 1610 0175 31        		.uleb128 0x31
 1611 0176 13        		.uleb128 0x13
 1612 0177 11        		.uleb128 0x11
 1613 0178 01        		.uleb128 0x1
 1614 0179 12        		.uleb128 0x12
 1615 017a 01        		.uleb128 0x1
 1616 017b 40        		.uleb128 0x40
 1617 017c 0A        		.uleb128 0xa
 1618 017d 01        		.uleb128 0x1
 1619 017e 13        		.uleb128 0x13
 1620 017f 00        		.byte	0x0
 1621 0180 00        		.byte	0x0
 1622 0181 1A        		.uleb128 0x1a
 1623 0182 05        		.uleb128 0x5
 1624 0183 00        		.byte	0x0
 1625 0184 31        		.uleb128 0x31
 1626 0185 13        		.uleb128 0x13
 1627 0186 02        		.uleb128 0x2
 1628 0187 06        		.uleb128 0x6
 1629 0188 00        		.byte	0x0
 1630 0189 00        		.byte	0x0
 1631 018a 1B        		.uleb128 0x1b
 1632 018b 05        		.uleb128 0x5
 1633 018c 00        		.byte	0x0
 1634 018d 03        		.uleb128 0x3
 1635 018e 08        		.uleb128 0x8
 1636 018f 3A        		.uleb128 0x3a
 1637 0190 0B        		.uleb128 0xb
 1638 0191 3B        		.uleb128 0x3b
 1639 0192 05        		.uleb128 0x5
 1640 0193 49        		.uleb128 0x49
 1641 0194 13        		.uleb128 0x13
 1642 0195 02        		.uleb128 0x2
 1643 0196 06        		.uleb128 0x6
 1644 0197 00        		.byte	0x0
 1645 0198 00        		.byte	0x0
 1646 0199 1C        		.uleb128 0x1c
 1647 019a 1D        		.uleb128 0x1d
 1648 019b 01        		.byte	0x1
 1649 019c 31        		.uleb128 0x31
 1650 019d 13        		.uleb128 0x13
 1651 019e 55        		.uleb128 0x55
 1652 019f 06        		.uleb128 0x6
 1653 01a0 58        		.uleb128 0x58
GAS LISTING /tmp/cc4iyc4l.s 			page 30


 1654 01a1 0B        		.uleb128 0xb
 1655 01a2 59        		.uleb128 0x59
 1656 01a3 05        		.uleb128 0x5
 1657 01a4 00        		.byte	0x0
 1658 01a5 00        		.byte	0x0
 1659 01a6 1D        		.uleb128 0x1d
 1660 01a7 05        		.uleb128 0x5
 1661 01a8 00        		.byte	0x0
 1662 01a9 31        		.uleb128 0x31
 1663 01aa 13        		.uleb128 0x13
 1664 01ab 00        		.byte	0x0
 1665 01ac 00        		.byte	0x0
 1666 01ad 1E        		.uleb128 0x1e
 1667 01ae 0F        		.uleb128 0xf
 1668 01af 00        		.byte	0x0
 1669 01b0 0B        		.uleb128 0xb
 1670 01b1 0B        		.uleb128 0xb
 1671 01b2 49        		.uleb128 0x49
 1672 01b3 13        		.uleb128 0x13
 1673 01b4 00        		.byte	0x0
 1674 01b5 00        		.byte	0x0
 1675 01b6 1F        		.uleb128 0x1f
 1676 01b7 05        		.uleb128 0x5
 1677 01b8 00        		.byte	0x0
 1678 01b9 03        		.uleb128 0x3
 1679 01ba 0E        		.uleb128 0xe
 1680 01bb 3A        		.uleb128 0x3a
 1681 01bc 0B        		.uleb128 0xb
 1682 01bd 3B        		.uleb128 0x3b
 1683 01be 05        		.uleb128 0x5
 1684 01bf 49        		.uleb128 0x49
 1685 01c0 13        		.uleb128 0x13
 1686 01c1 02        		.uleb128 0x2
 1687 01c2 06        		.uleb128 0x6
 1688 01c3 00        		.byte	0x0
 1689 01c4 00        		.byte	0x0
 1690 01c5 20        		.uleb128 0x20
 1691 01c6 34        		.uleb128 0x34
 1692 01c7 00        		.byte	0x0
 1693 01c8 03        		.uleb128 0x3
 1694 01c9 08        		.uleb128 0x8
 1695 01ca 3A        		.uleb128 0x3a
 1696 01cb 0B        		.uleb128 0xb
 1697 01cc 3B        		.uleb128 0x3b
 1698 01cd 05        		.uleb128 0x5
 1699 01ce 49        		.uleb128 0x49
 1700 01cf 13        		.uleb128 0x13
 1701 01d0 00        		.byte	0x0
 1702 01d1 00        		.byte	0x0
 1703 01d2 21        		.uleb128 0x21
 1704 01d3 1D        		.uleb128 0x1d
 1705 01d4 01        		.byte	0x1
 1706 01d5 31        		.uleb128 0x31
 1707 01d6 13        		.uleb128 0x13
 1708 01d7 11        		.uleb128 0x11
 1709 01d8 01        		.uleb128 0x1
 1710 01d9 12        		.uleb128 0x12
GAS LISTING /tmp/cc4iyc4l.s 			page 31


 1711 01da 01        		.uleb128 0x1
 1712 01db 58        		.uleb128 0x58
 1713 01dc 0B        		.uleb128 0xb
 1714 01dd 59        		.uleb128 0x59
 1715 01de 05        		.uleb128 0x5
 1716 01df 01        		.uleb128 0x1
 1717 01e0 13        		.uleb128 0x13
 1718 01e1 00        		.byte	0x0
 1719 01e2 00        		.byte	0x0
 1720 01e3 22        		.uleb128 0x22
 1721 01e4 34        		.uleb128 0x34
 1722 01e5 00        		.byte	0x0
 1723 01e6 03        		.uleb128 0x3
 1724 01e7 0E        		.uleb128 0xe
 1725 01e8 3A        		.uleb128 0x3a
 1726 01e9 0B        		.uleb128 0xb
 1727 01ea 3B        		.uleb128 0x3b
 1728 01eb 05        		.uleb128 0x5
 1729 01ec 49        		.uleb128 0x49
 1730 01ed 13        		.uleb128 0x13
 1731 01ee 02        		.uleb128 0x2
 1732 01ef 0A        		.uleb128 0xa
 1733 01f0 00        		.byte	0x0
 1734 01f1 00        		.byte	0x0
 1735 01f2 23        		.uleb128 0x23
 1736 01f3 34        		.uleb128 0x34
 1737 01f4 00        		.byte	0x0
 1738 01f5 03        		.uleb128 0x3
 1739 01f6 0E        		.uleb128 0xe
 1740 01f7 3A        		.uleb128 0x3a
 1741 01f8 0B        		.uleb128 0xb
 1742 01f9 3B        		.uleb128 0x3b
 1743 01fa 05        		.uleb128 0x5
 1744 01fb 49        		.uleb128 0x49
 1745 01fc 13        		.uleb128 0x13
 1746 01fd 02        		.uleb128 0x2
 1747 01fe 06        		.uleb128 0x6
 1748 01ff 00        		.byte	0x0
 1749 0200 00        		.byte	0x0
 1750 0201 24        		.uleb128 0x24
 1751 0202 01        		.uleb128 0x1
 1752 0203 01        		.byte	0x1
 1753 0204 49        		.uleb128 0x49
 1754 0205 13        		.uleb128 0x13
 1755 0206 01        		.uleb128 0x1
 1756 0207 13        		.uleb128 0x13
 1757 0208 00        		.byte	0x0
 1758 0209 00        		.byte	0x0
 1759 020a 25        		.uleb128 0x25
 1760 020b 21        		.uleb128 0x21
 1761 020c 00        		.byte	0x0
 1762 020d 49        		.uleb128 0x49
 1763 020e 13        		.uleb128 0x13
 1764 020f 2F        		.uleb128 0x2f
 1765 0210 0B        		.uleb128 0xb
 1766 0211 00        		.byte	0x0
 1767 0212 00        		.byte	0x0
GAS LISTING /tmp/cc4iyc4l.s 			page 32


 1768 0213 26        		.uleb128 0x26
 1769 0214 35        		.uleb128 0x35
 1770 0215 00        		.byte	0x0
 1771 0216 49        		.uleb128 0x49
 1772 0217 13        		.uleb128 0x13
 1773 0218 00        		.byte	0x0
 1774 0219 00        		.byte	0x0
 1775 021a 27        		.uleb128 0x27
 1776 021b 34        		.uleb128 0x34
 1777 021c 00        		.byte	0x0
 1778 021d 03        		.uleb128 0x3
 1779 021e 08        		.uleb128 0x8
 1780 021f 3A        		.uleb128 0x3a
 1781 0220 0B        		.uleb128 0xb
 1782 0221 3B        		.uleb128 0x3b
 1783 0222 0B        		.uleb128 0xb
 1784 0223 49        		.uleb128 0x49
 1785 0224 13        		.uleb128 0x13
 1786 0225 02        		.uleb128 0x2
 1787 0226 0A        		.uleb128 0xa
 1788 0227 00        		.byte	0x0
 1789 0228 00        		.byte	0x0
 1790 0229 00        		.byte	0x0
 1791               		.section	.debug_pubnames,"",@progbits
 1792 0000 FF00 0000 		.long	0xff
 1793 0004 0200      		.word	0x2
 1794 0006 0000 0000 		.long	.Ldebug_info0
 1795 000a E003 0000 		.long	0x3e0
 1796 000e C900 0000 		.long	0xc9
 1797 0012 5F5F 7665 		.string	"__vector_10"
 1797      6374 6F72 
 1797      5F31 3000 
 1798 001e 5C01 0000 		.long	0x15c
 1799 0022 736F 6674 		.string	"softuart_init"
 1799      7561 7274 
 1799      5F69 6E69 
 1799      7400 
 1800 0030 A801 0000 		.long	0x1a8
 1801 0034 736F 6674 		.string	"softuart_turn_rx_on"
 1801      7561 7274 
 1801      5F74 7572 
 1801      6E5F 7278 
 1801      5F6F 6E00 
 1802 0048 BD01 0000 		.long	0x1bd
 1803 004c 736F 6674 		.string	"softuart_turn_rx_off"
 1803      7561 7274 
 1803      5F74 7572 
 1803      6E5F 7278 
 1803      5F6F 6666 
 1804 0061 D201 0000 		.long	0x1d2
 1805 0065 736F 6674 		.string	"softuart_getchar"
 1805      7561 7274 
 1805      5F67 6574 
 1805      6368 6172 
 1805      00
 1806 0076 FD01 0000 		.long	0x1fd
 1807 007a 736F 6674 		.string	"softuart_kbhit"
GAS LISTING /tmp/cc4iyc4l.s 			page 33


 1807      7561 7274 
 1807      5F6B 6268 
 1807      6974 00
 1808 0089 1602 0000 		.long	0x216
 1809 008d 736F 6674 		.string	"softuart_flush_input_buffer"
 1809      7561 7274 
 1809      5F66 6C75 
 1809      7368 5F69 
 1809      6E70 7574 
 1810 00a9 2B02 0000 		.long	0x22b
 1811 00ad 736F 6674 		.string	"softuart_transmit_busy"
 1811      7561 7274 
 1811      5F74 7261 
 1811      6E73 6D69 
 1811      745F 6275 
 1812 00c4 4402 0000 		.long	0x244
 1813 00c8 736F 6674 		.string	"softuart_putchar"
 1813      7561 7274 
 1813      5F70 7574 
 1813      6368 6172 
 1813      00
 1814 00d9 6202 0000 		.long	0x262
 1815 00dd 736F 6674 		.string	"softuart_puts"
 1815      7561 7274 
 1815      5F70 7574 
 1815      7300 
 1816 00eb A202 0000 		.long	0x2a2
 1817 00ef 736F 6674 		.string	"softuart_puts_p"
 1817      7561 7274 
 1817      5F70 7574 
 1817      735F 7000 
 1818 00ff 0000 0000 		.long	0x0
 1819               		.section	.debug_aranges,"",@progbits
 1820 0000 1C00 0000 		.long	0x1c
 1821 0004 0200      		.word	0x2
 1822 0006 0000 0000 		.long	.Ldebug_info0
 1823 000a 04        		.byte	0x4
 1824 000b 00        		.byte	0x0
 1825 000c 0000      		.word	0x0
 1826 000e 0000      		.word	0x0
 1827 0010 0000 0000 		.long	.Ltext0
 1828 0014 6602 0000 		.long	.Letext0-.Ltext0
 1829 0018 0000 0000 		.long	0x0
 1830 001c 0000 0000 		.long	0x0
 1831               		.section	.debug_ranges,"",@progbits
 1832               	.Ldebug_ranges0:
 1833 0000 F001 0000 		.long	.LBB17-.Ltext0
 1834 0004 0002 0000 		.long	.LBE17-.Ltext0
 1835 0008 0202 0000 		.long	.LBB20-.Ltext0
 1836 000c 2002 0000 		.long	.LBE20-.Ltext0
 1837 0010 0000 0000 		.long	0x0
 1838 0014 0000 0000 		.long	0x0
 1839               		.section	.debug_line
 1840 0000 AF03 0000 		.long	.LELT0-.LSLT0
 1841               	.LSLT0:
 1842 0004 0200      		.word	0x2
 1843 0006 6300 0000 		.long	.LELTP0-.LASLTP0
GAS LISTING /tmp/cc4iyc4l.s 			page 34


 1844               	.LASLTP0:
 1845 000a 01        		.byte	0x1
 1846 000b 01        		.byte	0x1
 1847 000c F6        		.byte	0xf6
 1848 000d F5        		.byte	0xf5
 1849 000e 0A        		.byte	0xa
 1850 000f 00        		.byte	0x0
 1851 0010 01        		.byte	0x1
 1852 0011 01        		.byte	0x1
 1853 0012 01        		.byte	0x1
 1854 0013 01        		.byte	0x1
 1855 0014 00        		.byte	0x0
 1856 0015 00        		.byte	0x0
 1857 0016 00        		.byte	0x0
 1858 0017 01        		.byte	0x1
 1859 0018 2F6F 7074 		.ascii	"/opt/cross/avr/lib/gcc/avr/4.3.3/../../../../avr/include"
 1859      2F63 726F 
 1859      7373 2F61 
 1859      7672 2F6C 
 1859      6962 2F67 
 1860 0050 00        		.byte	0
 1861 0051 00        		.byte	0x0
 1862 0052 736F 6674 		.string	"softuart.c"
 1862      7561 7274 
 1862      2E63 00
 1863 005d 00        		.uleb128 0x0
 1864 005e 00        		.uleb128 0x0
 1865 005f 00        		.uleb128 0x0
 1866 0060 7374 6469 		.string	"stdint.h"
 1866      6E74 2E68 
 1866      00
 1867 0069 01        		.uleb128 0x1
 1868 006a 00        		.uleb128 0x0
 1869 006b 00        		.uleb128 0x0
 1870 006c 00        		.byte	0x0
 1871               	.LELTP0:
 1872 006d 00        		.byte	0x0
 1873 006e 05        		.uleb128 0x5
 1874 006f 02        		.byte	0x2
 1875 0070 0000 0000 		.long	.LM1
 1876 0074 BD        		.byte	0xbd
 1877 0075 00        		.byte	0x0
 1878 0076 05        		.uleb128 0x5
 1879 0077 02        		.byte	0x2
 1880 0078 0000 0000 		.long	.LM2
 1881 007c 20        		.byte	0x20
 1882 007d 00        		.byte	0x0
 1883 007e 05        		.uleb128 0x5
 1884 007f 02        		.byte	0x2
 1885 0080 0000 0000 		.long	.LM3
 1886 0084 15        		.byte	0x15
 1887 0085 00        		.byte	0x0
 1888 0086 05        		.uleb128 0x5
 1889 0087 02        		.byte	0x2
 1890 0088 0000 0000 		.long	.LM4
 1891 008c 15        		.byte	0x15
 1892 008d 00        		.byte	0x0
GAS LISTING /tmp/cc4iyc4l.s 			page 35


 1893 008e 05        		.uleb128 0x5
 1894 008f 02        		.byte	0x2
 1895 0090 0000 0000 		.long	.LM5
 1896 0094 15        		.byte	0x15
 1897 0095 00        		.byte	0x0
 1898 0096 05        		.uleb128 0x5
 1899 0097 02        		.byte	0x2
 1900 0098 0000 0000 		.long	.LM6
 1901 009c 15        		.byte	0x15
 1902 009d 00        		.byte	0x0
 1903 009e 05        		.uleb128 0x5
 1904 009f 02        		.byte	0x2
 1905 00a0 0000 0000 		.long	.LM7
 1906 00a4 17        		.byte	0x17
 1907 00a5 00        		.byte	0x0
 1908 00a6 05        		.uleb128 0x5
 1909 00a7 02        		.byte	0x2
 1910 00a8 0000 0000 		.long	.LM8
 1911 00ac 16        		.byte	0x16
 1912 00ad 00        		.byte	0x0
 1913 00ae 05        		.uleb128 0x5
 1914 00af 02        		.byte	0x2
 1915 00b0 0000 0000 		.long	.LM9
 1916 00b4 16        		.byte	0x16
 1917 00b5 00        		.byte	0x0
 1918 00b6 05        		.uleb128 0x5
 1919 00b7 02        		.byte	0x2
 1920 00b8 0000 0000 		.long	.LM10
 1921 00bc 15        		.byte	0x15
 1922 00bd 00        		.byte	0x0
 1923 00be 05        		.uleb128 0x5
 1924 00bf 02        		.byte	0x2
 1925 00c0 0000 0000 		.long	.LM11
 1926 00c4 17        		.byte	0x17
 1927 00c5 00        		.byte	0x0
 1928 00c6 05        		.uleb128 0x5
 1929 00c7 02        		.byte	0x2
 1930 00c8 0000 0000 		.long	.LM12
 1931 00cc 18        		.byte	0x18
 1932 00cd 00        		.byte	0x0
 1933 00ce 05        		.uleb128 0x5
 1934 00cf 02        		.byte	0x2
 1935 00d0 0000 0000 		.long	.LM13
 1936 00d4 15        		.byte	0x15
 1937 00d5 00        		.byte	0x0
 1938 00d6 05        		.uleb128 0x5
 1939 00d7 02        		.byte	0x2
 1940 00d8 0000 0000 		.long	.LM14
 1941 00dc 15        		.byte	0x15
 1942 00dd 00        		.byte	0x0
 1943 00de 05        		.uleb128 0x5
 1944 00df 02        		.byte	0x2
 1945 00e0 0000 0000 		.long	.LM15
 1946 00e4 15        		.byte	0x15
 1947 00e5 00        		.byte	0x0
 1948 00e6 05        		.uleb128 0x5
 1949 00e7 02        		.byte	0x2
GAS LISTING /tmp/cc4iyc4l.s 			page 36


 1950 00e8 0000 0000 		.long	.LM16
 1951 00ec 15        		.byte	0x15
 1952 00ed 00        		.byte	0x0
 1953 00ee 05        		.uleb128 0x5
 1954 00ef 02        		.byte	0x2
 1955 00f0 0000 0000 		.long	.LM17
 1956 00f4 15        		.byte	0x15
 1957 00f5 00        		.byte	0x0
 1958 00f6 05        		.uleb128 0x5
 1959 00f7 02        		.byte	0x2
 1960 00f8 0000 0000 		.long	.LM18
 1961 00fc 15        		.byte	0x15
 1962 00fd 00        		.byte	0x0
 1963 00fe 05        		.uleb128 0x5
 1964 00ff 02        		.byte	0x2
 1965 0100 0000 0000 		.long	.LM19
 1966 0104 16        		.byte	0x16
 1967 0105 00        		.byte	0x0
 1968 0106 05        		.uleb128 0x5
 1969 0107 02        		.byte	0x2
 1970 0108 0000 0000 		.long	.LM20
 1971 010c 19        		.byte	0x19
 1972 010d 00        		.byte	0x0
 1973 010e 05        		.uleb128 0x5
 1974 010f 02        		.byte	0x2
 1975 0110 0000 0000 		.long	.LM21
 1976 0114 17        		.byte	0x17
 1977 0115 00        		.byte	0x0
 1978 0116 05        		.uleb128 0x5
 1979 0117 02        		.byte	0x2
 1980 0118 0000 0000 		.long	.LM22
 1981 011c 15        		.byte	0x15
 1982 011d 00        		.byte	0x0
 1983 011e 05        		.uleb128 0x5
 1984 011f 02        		.byte	0x2
 1985 0120 0000 0000 		.long	.LM23
 1986 0124 15        		.byte	0x15
 1987 0125 00        		.byte	0x0
 1988 0126 05        		.uleb128 0x5
 1989 0127 02        		.byte	0x2
 1990 0128 0000 0000 		.long	.LM24
 1991 012c 15        		.byte	0x15
 1992 012d 00        		.byte	0x0
 1993 012e 05        		.uleb128 0x5
 1994 012f 02        		.byte	0x2
 1995 0130 0000 0000 		.long	.LM25
 1996 0134 15        		.byte	0x15
 1997 0135 00        		.byte	0x0
 1998 0136 05        		.uleb128 0x5
 1999 0137 02        		.byte	0x2
 2000 0138 0000 0000 		.long	.LM26
 2001 013c 15        		.byte	0x15
 2002 013d 00        		.byte	0x0
 2003 013e 05        		.uleb128 0x5
 2004 013f 02        		.byte	0x2
 2005 0140 0000 0000 		.long	.LM27
 2006 0144 18        		.byte	0x18
GAS LISTING /tmp/cc4iyc4l.s 			page 37


 2007 0145 00        		.byte	0x0
 2008 0146 05        		.uleb128 0x5
 2009 0147 02        		.byte	0x2
 2010 0148 0000 0000 		.long	.LM28
 2011 014c 15        		.byte	0x15
 2012 014d 00        		.byte	0x0
 2013 014e 05        		.uleb128 0x5
 2014 014f 02        		.byte	0x2
 2015 0150 0000 0000 		.long	.LM29
 2016 0154 18        		.byte	0x18
 2017 0155 00        		.byte	0x0
 2018 0156 05        		.uleb128 0x5
 2019 0157 02        		.byte	0x2
 2020 0158 0000 0000 		.long	.LM30
 2021 015c 15        		.byte	0x15
 2022 015d 00        		.byte	0x0
 2023 015e 05        		.uleb128 0x5
 2024 015f 02        		.byte	0x2
 2025 0160 0000 0000 		.long	.LM31
 2026 0164 16        		.byte	0x16
 2027 0165 00        		.byte	0x0
 2028 0166 05        		.uleb128 0x5
 2029 0167 02        		.byte	0x2
 2030 0168 0000 0000 		.long	.LM32
 2031 016c 15        		.byte	0x15
 2032 016d 00        		.byte	0x0
 2033 016e 05        		.uleb128 0x5
 2034 016f 02        		.byte	0x2
 2035 0170 0000 0000 		.long	.LM33
 2036 0174 15        		.byte	0x15
 2037 0175 00        		.byte	0x0
 2038 0176 05        		.uleb128 0x5
 2039 0177 02        		.byte	0x2
 2040 0178 0000 0000 		.long	.LM34
 2041 017c 17        		.byte	0x17
 2042 017d 00        		.byte	0x0
 2043 017e 05        		.uleb128 0x5
 2044 017f 02        		.byte	0x2
 2045 0180 0000 0000 		.long	.LM35
 2046 0184 18        		.byte	0x18
 2047 0185 00        		.byte	0x0
 2048 0186 05        		.uleb128 0x5
 2049 0187 02        		.byte	0x2
 2050 0188 0000 0000 		.long	.LM36
 2051 018c 32        		.byte	0x32
 2052 018d 00        		.byte	0x0
 2053 018e 05        		.uleb128 0x5
 2054 018f 02        		.byte	0x2
 2055 0190 0000 0000 		.long	.LM37
 2056 0194 15        		.byte	0x15
 2057 0195 00        		.byte	0x0
 2058 0196 05        		.uleb128 0x5
 2059 0197 02        		.byte	0x2
 2060 0198 0000 0000 		.long	.LM38
 2061 019c 15        		.byte	0x15
 2062 019d 00        		.byte	0x0
 2063 019e 05        		.uleb128 0x5
GAS LISTING /tmp/cc4iyc4l.s 			page 38


 2064 019f 02        		.byte	0x2
 2065 01a0 0000 0000 		.long	.LM39
 2066 01a4 15        		.byte	0x15
 2067 01a5 00        		.byte	0x0
 2068 01a6 05        		.uleb128 0x5
 2069 01a7 02        		.byte	0x2
 2070 01a8 0000 0000 		.long	.LM40
 2071 01ac 16        		.byte	0x16
 2072 01ad 00        		.byte	0x0
 2073 01ae 05        		.uleb128 0x5
 2074 01af 02        		.byte	0x2
 2075 01b0 0000 0000 		.long	.LM41
 2076 01b4 03        		.byte	0x3
 2077 01b5 62        		.sleb128 -30
 2078 01b6 01        		.byte	0x1
 2079 01b7 00        		.byte	0x0
 2080 01b8 05        		.uleb128 0x5
 2081 01b9 02        		.byte	0x2
 2082 01ba 0000 0000 		.long	.LM42
 2083 01be 16        		.byte	0x16
 2084 01bf 00        		.byte	0x0
 2085 01c0 05        		.uleb128 0x5
 2086 01c1 02        		.byte	0x2
 2087 01c2 0000 0000 		.long	.LM43
 2088 01c6 1B        		.byte	0x1b
 2089 01c7 00        		.byte	0x0
 2090 01c8 05        		.uleb128 0x5
 2091 01c9 02        		.byte	0x2
 2092 01ca 0000 0000 		.long	.LM44
 2093 01ce 15        		.byte	0x15
 2094 01cf 00        		.byte	0x0
 2095 01d0 05        		.uleb128 0x5
 2096 01d1 02        		.byte	0x2
 2097 01d2 0000 0000 		.long	.LM45
 2098 01d6 16        		.byte	0x16
 2099 01d7 00        		.byte	0x0
 2100 01d8 05        		.uleb128 0x5
 2101 01d9 02        		.byte	0x2
 2102 01da 0000 0000 		.long	.LM46
 2103 01de 16        		.byte	0x16
 2104 01df 00        		.byte	0x0
 2105 01e0 05        		.uleb128 0x5
 2106 01e1 02        		.byte	0x2
 2107 01e2 0000 0000 		.long	.LM47
 2108 01e6 15        		.byte	0x15
 2109 01e7 00        		.byte	0x0
 2110 01e8 05        		.uleb128 0x5
 2111 01e9 02        		.byte	0x2
 2112 01ea 0000 0000 		.long	.LM48
 2113 01ee 16        		.byte	0x16
 2114 01ef 00        		.byte	0x0
 2115 01f0 05        		.uleb128 0x5
 2116 01f1 02        		.byte	0x2
 2117 01f2 0000 0000 		.long	.LM49
 2118 01f6 16        		.byte	0x16
 2119 01f7 00        		.byte	0x0
 2120 01f8 05        		.uleb128 0x5
GAS LISTING /tmp/cc4iyc4l.s 			page 39


 2121 01f9 02        		.byte	0x2
 2122 01fa 0000 0000 		.long	.LM50
 2123 01fe 16        		.byte	0x16
 2124 01ff 00        		.byte	0x0
 2125 0200 05        		.uleb128 0x5
 2126 0201 02        		.byte	0x2
 2127 0202 0000 0000 		.long	.LM51
 2128 0206 21        		.byte	0x21
 2129 0207 00        		.byte	0x0
 2130 0208 05        		.uleb128 0x5
 2131 0209 02        		.byte	0x2
 2132 020a 0000 0000 		.long	.LM52
 2133 020e 1E        		.byte	0x1e
 2134 020f 00        		.byte	0x0
 2135 0210 05        		.uleb128 0x5
 2136 0211 02        		.byte	0x2
 2137 0212 0000 0000 		.long	.LM53
 2138 0216 15        		.byte	0x15
 2139 0217 00        		.byte	0x0
 2140 0218 05        		.uleb128 0x5
 2141 0219 02        		.byte	0x2
 2142 021a 0000 0000 		.long	.LM54
 2143 021e 15        		.byte	0x15
 2144 021f 00        		.byte	0x0
 2145 0220 05        		.uleb128 0x5
 2146 0221 02        		.byte	0x2
 2147 0222 0000 0000 		.long	.LM55
 2148 0226 17        		.byte	0x17
 2149 0227 00        		.byte	0x0
 2150 0228 05        		.uleb128 0x5
 2151 0229 02        		.byte	0x2
 2152 022a 0000 0000 		.long	.LM56
 2153 022e 15        		.byte	0x15
 2154 022f 00        		.byte	0x0
 2155 0230 05        		.uleb128 0x5
 2156 0231 02        		.byte	0x2
 2157 0232 0000 0000 		.long	.LM57
 2158 0236 15        		.byte	0x15
 2159 0237 00        		.byte	0x0
 2160 0238 05        		.uleb128 0x5
 2161 0239 02        		.byte	0x2
 2162 023a 0000 0000 		.long	.LM58
 2163 023e 17        		.byte	0x17
 2164 023f 00        		.byte	0x0
 2165 0240 05        		.uleb128 0x5
 2166 0241 02        		.byte	0x2
 2167 0242 0000 0000 		.long	.LM59
 2168 0246 17        		.byte	0x17
 2169 0247 00        		.byte	0x0
 2170 0248 05        		.uleb128 0x5
 2171 0249 02        		.byte	0x2
 2172 024a 0000 0000 		.long	.LM60
 2173 024e 17        		.byte	0x17
 2174 024f 00        		.byte	0x0
 2175 0250 05        		.uleb128 0x5
 2176 0251 02        		.byte	0x2
 2177 0252 0000 0000 		.long	.LM61
GAS LISTING /tmp/cc4iyc4l.s 			page 40


 2178 0256 15        		.byte	0x15
 2179 0257 00        		.byte	0x0
 2180 0258 05        		.uleb128 0x5
 2181 0259 02        		.byte	0x2
 2182 025a 0000 0000 		.long	.LM62
 2183 025e 15        		.byte	0x15
 2184 025f 00        		.byte	0x0
 2185 0260 05        		.uleb128 0x5
 2186 0261 02        		.byte	0x2
 2187 0262 0000 0000 		.long	.LM63
 2188 0266 18        		.byte	0x18
 2189 0267 00        		.byte	0x0
 2190 0268 05        		.uleb128 0x5
 2191 0269 02        		.byte	0x2
 2192 026a 0000 0000 		.long	.LM64
 2193 026e 17        		.byte	0x17
 2194 026f 00        		.byte	0x0
 2195 0270 05        		.uleb128 0x5
 2196 0271 02        		.byte	0x2
 2197 0272 0000 0000 		.long	.LM65
 2198 0276 15        		.byte	0x15
 2199 0277 00        		.byte	0x0
 2200 0278 05        		.uleb128 0x5
 2201 0279 02        		.byte	0x2
 2202 027a 0000 0000 		.long	.LM66
 2203 027e 15        		.byte	0x15
 2204 027f 00        		.byte	0x0
 2205 0280 05        		.uleb128 0x5
 2206 0281 02        		.byte	0x2
 2207 0282 0000 0000 		.long	.LM67
 2208 0286 17        		.byte	0x17
 2209 0287 00        		.byte	0x0
 2210 0288 05        		.uleb128 0x5
 2211 0289 02        		.byte	0x2
 2212 028a 0000 0000 		.long	.LM68
 2213 028e 15        		.byte	0x15
 2214 028f 00        		.byte	0x0
 2215 0290 05        		.uleb128 0x5
 2216 0291 02        		.byte	0x2
 2217 0292 0000 0000 		.long	.LM69
 2218 0296 15        		.byte	0x15
 2219 0297 00        		.byte	0x0
 2220 0298 05        		.uleb128 0x5
 2221 0299 02        		.byte	0x2
 2222 029a 0000 0000 		.long	.LM70
 2223 029e 15        		.byte	0x15
 2224 029f 00        		.byte	0x0
 2225 02a0 05        		.uleb128 0x5
 2226 02a1 02        		.byte	0x2
 2227 02a2 0000 0000 		.long	.LM71
 2228 02a6 17        		.byte	0x17
 2229 02a7 00        		.byte	0x0
 2230 02a8 05        		.uleb128 0x5
 2231 02a9 02        		.byte	0x2
 2232 02aa 0000 0000 		.long	.LM72
 2233 02ae 15        		.byte	0x15
 2234 02af 00        		.byte	0x0
GAS LISTING /tmp/cc4iyc4l.s 			page 41


 2235 02b0 05        		.uleb128 0x5
 2236 02b1 02        		.byte	0x2
 2237 02b2 0000 0000 		.long	.LM73
 2238 02b6 15        		.byte	0x15
 2239 02b7 00        		.byte	0x0
 2240 02b8 05        		.uleb128 0x5
 2241 02b9 02        		.byte	0x2
 2242 02ba 0000 0000 		.long	.LM74
 2243 02be 17        		.byte	0x17
 2244 02bf 00        		.byte	0x0
 2245 02c0 05        		.uleb128 0x5
 2246 02c1 02        		.byte	0x2
 2247 02c2 0000 0000 		.long	.LM75
 2248 02c6 15        		.byte	0x15
 2249 02c7 00        		.byte	0x0
 2250 02c8 05        		.uleb128 0x5
 2251 02c9 02        		.byte	0x2
 2252 02ca 0000 0000 		.long	.LM76
 2253 02ce 1A        		.byte	0x1a
 2254 02cf 00        		.byte	0x0
 2255 02d0 05        		.uleb128 0x5
 2256 02d1 02        		.byte	0x2
 2257 02d2 0000 0000 		.long	.LM77
 2258 02d6 15        		.byte	0x15
 2259 02d7 00        		.byte	0x0
 2260 02d8 05        		.uleb128 0x5
 2261 02d9 02        		.byte	0x2
 2262 02da 0000 0000 		.long	.LM78
 2263 02de 15        		.byte	0x15
 2264 02df 00        		.byte	0x0
 2265 02e0 05        		.uleb128 0x5
 2266 02e1 02        		.byte	0x2
 2267 02e2 0000 0000 		.long	.LM79
 2268 02e6 15        		.byte	0x15
 2269 02e7 00        		.byte	0x0
 2270 02e8 05        		.uleb128 0x5
 2271 02e9 02        		.byte	0x2
 2272 02ea 0000 0000 		.long	.LM80
 2273 02ee 15        		.byte	0x15
 2274 02ef 00        		.byte	0x0
 2275 02f0 05        		.uleb128 0x5
 2276 02f1 02        		.byte	0x2
 2277 02f2 0000 0000 		.long	.LM81
 2278 02f6 17        		.byte	0x17
 2279 02f7 00        		.byte	0x0
 2280 02f8 05        		.uleb128 0x5
 2281 02f9 02        		.byte	0x2
 2282 02fa 0000 0000 		.long	.LM82
 2283 02fe 0D        		.byte	0xd
 2284 02ff 00        		.byte	0x0
 2285 0300 05        		.uleb128 0x5
 2286 0301 02        		.byte	0x2
 2287 0302 0000 0000 		.long	.LM83
 2288 0306 15        		.byte	0x15
 2289 0307 00        		.byte	0x0
 2290 0308 05        		.uleb128 0x5
 2291 0309 02        		.byte	0x2
GAS LISTING /tmp/cc4iyc4l.s 			page 42


 2292 030a 0000 0000 		.long	.LM84
 2293 030e 16        		.byte	0x16
 2294 030f 00        		.byte	0x0
 2295 0310 05        		.uleb128 0x5
 2296 0311 02        		.byte	0x2
 2297 0312 0000 0000 		.long	.LM85
 2298 0316 0B        		.byte	0xb
 2299 0317 00        		.byte	0x0
 2300 0318 05        		.uleb128 0x5
 2301 0319 02        		.byte	0x2
 2302 031a 0000 0000 		.long	.LM86
 2303 031e 23        		.byte	0x23
 2304 031f 00        		.byte	0x0
 2305 0320 05        		.uleb128 0x5
 2306 0321 02        		.byte	0x2
 2307 0322 0000 0000 		.long	.LM87
 2308 0326 0B        		.byte	0xb
 2309 0327 00        		.byte	0x0
 2310 0328 05        		.uleb128 0x5
 2311 0329 02        		.byte	0x2
 2312 032a 0000 0000 		.long	.LM88
 2313 032e 15        		.byte	0x15
 2314 032f 00        		.byte	0x0
 2315 0330 05        		.uleb128 0x5
 2316 0331 02        		.byte	0x2
 2317 0332 0000 0000 		.long	.LM89
 2318 0336 15        		.byte	0x15
 2319 0337 00        		.byte	0x0
 2320 0338 05        		.uleb128 0x5
 2321 0339 02        		.byte	0x2
 2322 033a 0000 0000 		.long	.LM90
 2323 033e 15        		.byte	0x15
 2324 033f 00        		.byte	0x0
 2325 0340 05        		.uleb128 0x5
 2326 0341 02        		.byte	0x2
 2327 0342 0000 0000 		.long	.LM91
 2328 0346 19        		.byte	0x19
 2329 0347 00        		.byte	0x0
 2330 0348 05        		.uleb128 0x5
 2331 0349 02        		.byte	0x2
 2332 034a 0000 0000 		.long	.LM92
 2333 034e 17        		.byte	0x17
 2334 034f 00        		.byte	0x0
 2335 0350 05        		.uleb128 0x5
 2336 0351 02        		.byte	0x2
 2337 0352 0000 0000 		.long	.LM93
 2338 0356 17        		.byte	0x17
 2339 0357 00        		.byte	0x0
 2340 0358 05        		.uleb128 0x5
 2341 0359 02        		.byte	0x2
 2342 035a 0000 0000 		.long	.LM94
 2343 035e 03        		.byte	0x3
 2344 035f 72        		.sleb128 -14
 2345 0360 01        		.byte	0x1
 2346 0361 00        		.byte	0x0
 2347 0362 05        		.uleb128 0x5
 2348 0363 02        		.byte	0x2
GAS LISTING /tmp/cc4iyc4l.s 			page 43


 2349 0364 0000 0000 		.long	.LM95
 2350 0368 15        		.byte	0x15
 2351 0369 00        		.byte	0x0
 2352 036a 05        		.uleb128 0x5
 2353 036b 02        		.byte	0x2
 2354 036c 0000 0000 		.long	.LM96
 2355 0370 16        		.byte	0x16
 2356 0371 00        		.byte	0x0
 2357 0372 05        		.uleb128 0x5
 2358 0373 02        		.byte	0x2
 2359 0374 0000 0000 		.long	.LM97
 2360 0378 0B        		.byte	0xb
 2361 0379 00        		.byte	0x0
 2362 037a 05        		.uleb128 0x5
 2363 037b 02        		.byte	0x2
 2364 037c 0000 0000 		.long	.LM98
 2365 0380 1A        		.byte	0x1a
 2366 0381 00        		.byte	0x0
 2367 0382 05        		.uleb128 0x5
 2368 0383 02        		.byte	0x2
 2369 0384 0000 0000 		.long	.LM99
 2370 0388 15        		.byte	0x15
 2371 0389 00        		.byte	0x0
 2372 038a 05        		.uleb128 0x5
 2373 038b 02        		.byte	0x2
 2374 038c 0000 0000 		.long	.LM100
 2375 0390 15        		.byte	0x15
 2376 0391 00        		.byte	0x0
 2377 0392 05        		.uleb128 0x5
 2378 0393 02        		.byte	0x2
 2379 0394 0000 0000 		.long	.LM101
 2380 0398 15        		.byte	0x15
 2381 0399 00        		.byte	0x0
 2382 039a 05        		.uleb128 0x5
 2383 039b 02        		.byte	0x2
 2384 039c 0000 0000 		.long	.LM102
 2385 03a0 22        		.byte	0x22
 2386 03a1 00        		.byte	0x0
 2387 03a2 05        		.uleb128 0x5
 2388 03a3 02        		.byte	0x2
 2389 03a4 0000 0000 		.long	.LM103
 2390 03a8 17        		.byte	0x17
 2391 03a9 00        		.byte	0x0
 2392 03aa 05        		.uleb128 0x5
 2393 03ab 02        		.byte	0x2
 2394 03ac 0000 0000 		.long	.Letext0
 2395 03b0 00        		.byte	0x0
 2396 03b1 01        		.uleb128 0x1
 2397 03b2 01        		.byte	0x1
 2398               	.LELT0:
 2399 03b3 1900 0000 		.section	.debug_str,"MS",@progbits,1
 2399      0200 1300 
 2399      0000 0101 
 2399      FB0E 0D00 
 2399      0101 0101 
 2400               	.LASF16:
 2401 0000 7278 5F6D 		.string	"rx_mask"
GAS LISTING /tmp/cc4iyc4l.s 			page 44


 2401      6173 6B00 
 2402               	.LASF41:
 2403 0008 474E 5520 		.string	"GNU C 4.3.3"
 2403      4320 342E 
 2403      332E 3300 
 2404               	.LASF28:
 2405 0014 736F 6674 		.string	"softuart_puts_p"
 2405      7561 7274 
 2405      5F70 7574 
 2405      735F 7000 
 2406               	.LASF17:
 2407 0024 7469 6D65 		.string	"timer_rx_ctr"
 2407      725F 7278 
 2407      5F63 7472 
 2407      00
 2408               	.LASF36:
 2409 0031 666C 6167 		.string	"flag_tx_busy"
 2409      5F74 785F 
 2409      6275 7379 
 2409      00
 2410               	.LASF27:
 2411 003e 736F 6674 		.string	"softuart_puts"
 2411      7561 7274 
 2411      5F70 7574 
 2411      7300 
 2412               	.LASF35:
 2413 004c 666C 6167 		.string	"flag_rx_ready"
 2413      5F72 785F 
 2413      7265 6164 
 2413      7900 
 2414               	.LASF43:
 2415 005a 2F68 6F6D 		.string	"/home/mo/engineering/projects/ada"
 2415      652F 6D6F 
 2415      2F65 6E67 
 2415      696E 6565 
 2415      7269 6E67 
 2416               	.LASF21:
 2417 007c 736F 6674 		.string	"softuart_init"
 2417      7561 7274 
 2417      5F69 6E69 
 2417      7400 
 2418               	.LASF2:
 2419 008a 7569 6E74 		.string	"uint8_t"
 2419      385F 7400 
 2420               	.LASF18:
 2421 0092 6269 7473 		.string	"bits_left_in_rx"
 2421      5F6C 6566 
 2421      745F 696E 
 2421      5F72 7800 
 2422               	.LASF30:
 2423 00a2 5F5F 6164 		.string	"__addr16"
 2423      6472 3136 
 2423      00
 2424               	.LASF34:
 2425 00ab 666C 6167 		.string	"flag_rx_off"
 2425      5F72 785F 
 2425      6F66 6600 
GAS LISTING /tmp/cc4iyc4l.s 			page 45


 2426               	.LASF7:
 2427 00b7 6C6F 6E67 		.string	"long long int"
 2427      206C 6F6E 
 2427      6720 696E 
 2427      7400 
 2428               	.LASF44:
 2429 00c5 7469 6D65 		.string	"timer_init"
 2429      725F 696E 
 2429      6974 00
 2430               	.LASF5:
 2431 00d0 6C6F 6E67 		.string	"long int"
 2431      2069 6E74 
 2431      00
 2432               	.LASF42:
 2433 00d9 736F 6674 		.string	"softuart.c"
 2433      7561 7274 
 2433      2E63 00
 2434               	.LASF13:
 2435 00e4 7374 6172 		.string	"start_bit"
 2435      745F 6269 
 2435      7400 
 2436               	.LASF26:
 2437 00ee 736F 6674 		.string	"softuart_transmit_busy"
 2437      7561 7274 
 2437      5F74 7261 
 2437      6E73 6D69 
 2437      745F 6275 
 2438               	.LASF22:
 2439 0105 736F 6674 		.string	"softuart_turn_rx_on"
 2439      7561 7274 
 2439      5F74 7572 
 2439      6E5F 7278 
 2439      5F6F 6E00 
 2440               	.LASF1:
 2441 0119 756E 7369 		.string	"unsigned char"
 2441      676E 6564 
 2441      2063 6861 
 2441      7200 
 2442               	.LASF9:
 2443 0127 696F 5F69 		.string	"io_init"
 2443      6E69 7400 
 2444               	.LASF24:
 2445 012f 736F 6674 		.string	"softuart_flush_input_buffer"
 2445      7561 7274 
 2445      5F66 6C75 
 2445      7368 5F69 
 2445      6E70 7574 
 2446               	.LASF0:
 2447 014b 7369 676E 		.string	"signed char"
 2447      6564 2063 
 2447      6861 7200 
 2448               	.LASF8:
 2449 0157 6C6F 6E67 		.string	"long long unsigned int"
 2449      206C 6F6E 
 2449      6720 756E 
 2449      7369 676E 
 2449      6564 2069 
GAS LISTING /tmp/cc4iyc4l.s 			page 46


 2450               	.LASF10:
 2451 016e 6964 6C65 		.string	"idle"
 2451      00
 2452               	.LASF4:
 2453 0173 756E 7369 		.string	"unsigned int"
 2453      676E 6564 
 2453      2069 6E74 
 2453      00
 2454               	.LASF3:
 2455 0180 7569 6E74 		.string	"uint16_t"
 2455      3136 5F74 
 2455      00
 2456               	.LASF25:
 2457 0189 736F 6674 		.string	"softuart_kbhit"
 2457      7561 7274 
 2457      5F6B 6268 
 2457      6974 00
 2458               	.LASF37:
 2459 0198 7469 6D65 		.string	"timer_tx_ctr"
 2459      725F 7478 
 2459      5F63 7472 
 2459      00
 2460               	.LASF11:
 2461 01a5 6368 6172 		.string	"char"
 2461      00
 2462               	.LASF19:
 2463 01aa 696E 7465 		.string	"internal_rx_buffer"
 2463      726E 616C 
 2463      5F72 785F 
 2463      6275 6666 
 2463      6572 00
 2464               	.LASF32:
 2465 01bd 696E 6275 		.string	"inbuf"
 2465      6600 
 2466               	.LASF40:
 2467 01c3 7368 6F72 		.string	"short unsigned int"
 2467      7420 756E 
 2467      7369 676E 
 2467      6564 2069 
 2467      6E74 00
 2468               	.LASF31:
 2469 01d6 5F5F 7265 		.string	"__result"
 2469      7375 6C74 
 2469      00
 2470               	.LASF45:
 2471 01df 736F 6674 		.string	"softuart_putchar"
 2471      7561 7274 
 2471      5F70 7574 
 2471      6368 6172 
 2471      00
 2472               	.LASF12:
 2473 01f0 7372 6567 		.string	"sreg_tmp"
 2473      5F74 6D70 
 2473      00
 2474               	.LASF39:
 2475 01f9 696E 7465 		.string	"internal_tx_buffer"
 2475      726E 616C 
GAS LISTING /tmp/cc4iyc4l.s 			page 47


 2475      5F74 785F 
 2475      6275 6666 
 2475      6572 00
 2476               	.LASF23:
 2477 020c 736F 6674 		.string	"softuart_turn_rx_off"
 2477      7561 7274 
 2477      5F74 7572 
 2477      6E5F 7278 
 2477      5F6F 6666 
 2478               	.LASF20:
 2479 0221 5F5F 7665 		.string	"__vector_10"
 2479      6374 6F72 
 2479      5F31 3000 
 2480               	.LASF6:
 2481 022d 6C6F 6E67 		.string	"long unsigned int"
 2481      2075 6E73 
 2481      6967 6E65 
 2481      6420 696E 
 2481      7400 
 2482               	.LASF29:
 2483 023f 7072 675F 		.string	"prg_s"
 2483      7300 
 2484               	.LASF14:
 2485 0245 666C 6167 		.string	"flag_in"
 2485      5F69 6E00 
 2486               	.LASF38:
 2487 024d 6269 7473 		.string	"bits_left_in_tx"
 2487      5F6C 6566 
 2487      745F 696E 
 2487      5F74 7800 
 2488               	.LASF33:
 2489 025d 716F 7574 		.string	"qout"
 2489      00
 2490               	.LASF46:
 2491 0262 736F 6674 		.string	"softuart_getchar"
 2491      7561 7274 
 2491      5F67 6574 
 2491      6368 6172 
 2491      00
 2492               	.LASF15:
 2493 0273 666C 6167 		.string	"flag_rx_waiting_for_stop_bit"
 2493      5F72 785F 
 2493      7761 6974 
 2493      696E 675F 
 2493      666F 725F 
GAS LISTING /tmp/cc4iyc4l.s 			page 48


DEFINED SYMBOLS
                            *ABS*:00000000 softuart.c
     /tmp/cc4iyc4l.s:2      *ABS*:0000003f __SREG__
     /tmp/cc4iyc4l.s:3      *ABS*:0000003e __SP_H__
     /tmp/cc4iyc4l.s:4      *ABS*:0000003d __SP_L__
     /tmp/cc4iyc4l.s:5      *ABS*:00000034 __CCP__
     /tmp/cc4iyc4l.s:6      *ABS*:00000000 __tmp_reg__
     /tmp/cc4iyc4l.s:7      *ABS*:00000001 __zero_reg__
     /tmp/cc4iyc4l.s:20     .text:00000000 __vector_10
     /tmp/cc4iyc4l.s:544    .bss:00000029 flag_tx_busy
     /tmp/cc4iyc4l.s:545    .bss:0000002a timer_tx_ctr
     /tmp/cc4iyc4l.s:547    .bss:0000002c internal_tx_buffer
     /tmp/cc4iyc4l.s:546    .bss:0000002b bits_left_in_tx
     /tmp/cc4iyc4l.s:542    .bss:00000027 flag_rx_off
     /tmp/cc4iyc4l.s:538    .bss:00000004 flag_rx_waiting_for_stop_bit.1403
     /tmp/cc4iyc4l.s:536    .bss:00000002 timer_rx_ctr.1405
     /tmp/cc4iyc4l.s:543    .bss:00000028 flag_rx_ready
     /tmp/cc4iyc4l.s:540    .bss:00000025 qin
                             .bss:00000000 internal_rx_buffer.1407
     /tmp/cc4iyc4l.s:539    .bss:00000005 inbuf
     /tmp/cc4iyc4l.s:535    .bss:00000001 bits_left_in_rx.1406
     /tmp/cc4iyc4l.s:537    .bss:00000003 rx_mask.1404
     /tmp/cc4iyc4l.s:197    .text:0000012e softuart_init
     /tmp/cc4iyc4l.s:254    .text:0000015a softuart_turn_rx_on
     /tmp/cc4iyc4l.s:268    .text:00000160 softuart_turn_rx_off
     /tmp/cc4iyc4l.s:283    .text:00000168 softuart_getchar
     /tmp/cc4iyc4l.s:541    .bss:00000026 qout
     /tmp/cc4iyc4l.s:318    .text:00000192 softuart_kbhit
     /tmp/cc4iyc4l.s:338    .text:000001a4 softuart_flush_input_buffer
     /tmp/cc4iyc4l.s:354    .text:000001ae softuart_transmit_busy
     /tmp/cc4iyc4l.s:374    .text:000001be softuart_putchar
     /tmp/cc4iyc4l.s:415    .text:000001ee softuart_puts
     /tmp/cc4iyc4l.s:472    .text:00000228 softuart_puts_p

UNDEFINED SYMBOLS
__do_copy_data
__do_clear_bss
